Archive member included because of file (symbol)

lib_arm/libarm.a(board.o)     cpu/arm920t/start.o (start_armboot)
lib_arm/libarm.a(interrupts.o)
                              lib_arm/libarm.a(board.o) (enable_interrupts)
net/libnet.a(eth.o)           lib_arm/libarm.a(board.o) (eth_initialize)
net/libnet.a(net.o)           lib_arm/libarm.a(board.o) (copy_filename)
net/libnet.a(nfs.o)           net/libnet.a(net.o) (NfsStart)
net/libnet.a(rarp.o)          net/libnet.a(net.o) (RarpRequest)
net/libnet.a(tftp.o)          net/libnet.a(net.o) (TftpStart)
net/libnet.a(bootp.o)         net/libnet.a(net.o) (BootpRequest)
drivers/i2c/libi2c.a(s3c24x0_i2c.o)
                              lib_arm/libarm.a(board.o) (i2c_init)
drivers/mtd/nand/libnand.a(nand.o)
                              lib_arm/libarm.a(board.o) (nand_init)
drivers/mtd/nand/libnand.a(nand_base.o)
                              drivers/mtd/nand/libnand.a(nand.o) (nand_scan)
drivers/mtd/nand/libnand.a(nand_bbt.o)
                              drivers/mtd/nand/libnand.a(nand_base.o) (nand_isbad_bbt)
drivers/mtd/nand/libnand.a(nand_ecc.o)
                              drivers/mtd/nand/libnand.a(nand_base.o) (nand_calculate_ecc)
drivers/mtd/nand/libnand.a(nand_ids.o)
                              drivers/mtd/nand/libnand.a(nand_base.o) (nand_flash_ids)
drivers/mtd/nand/libnand.a(s3c2410_nand.o)
                              drivers/mtd/nand/libnand.a(nand.o) (board_nand_init)
drivers/serial/libserial.a(serial_s3c24x0.o)
                              lib_arm/libarm.a(board.o) (serial_init)
drivers/usb/slave/libusb_slave.a(usbinit.o)
                              lib_arm/libarm.a(board.o) (usb_init_slave)
drivers/usb/slave/libusb_slave.a(interrupt.o)
                              drivers/usb/slave/libusb_slave.a(usbinit.o) (Timer_InitEx)
drivers/usb/slave/libusb_slave.a(usblib.o)
                              drivers/usb/slave/libusb_slave.a(usbinit.o) (ConfigEp3DmaMode)
drivers/usb/slave/libusb_slave.a(usbmain.o)
                              drivers/usb/slave/libusb_slave.a(interrupt.o) (IsrUsbd)
drivers/usb/slave/libusb_slave.a(usbout.o)
                              drivers/usb/slave/libusb_slave.a(usbinit.o) (ClearEp3OutPktReady)
drivers/usb/slave/libusb_slave.a(usbsetup.o)
                              drivers/usb/slave/libusb_slave.a(usbmain.o) (InitDescriptorTable)
drivers/usb/slave/libusb_slave.a(usbin.o)
                              drivers/usb/slave/libusb_slave.a(usbmain.o) (PrepareEp1Fifo)
common/libcommon.a(cmd_bdinfo.o)
                              (__u_boot_cmd_bdinfo)
common/libcommon.a(cmd_bmp.o)
                              (__u_boot_cmd_bmp)
common/libcommon.a(cmd_boot.o)
                              (__u_boot_cmd_go)
common/libcommon.a(cmd_bootm.o)
                              lib_arm/libarm.a(board.o) (load_addr)
common/libcommon.a(cmd_cache.o)
                              (__u_boot_cmd_icache)
common/libcommon.a(cmd_console.o)
                              (__u_boot_cmd_coninfo)
common/libcommon.a(cmd_date.o)
                              (__u_boot_cmd_date)
common/libcommon.a(cmd_eeprom.o)
                              (__u_boot_cmd_eeprom)
common/libcommon.a(cmd_elf.o)
                              common/libcommon.a(cmd_bootm.o) (do_bootvx)
common/libcommon.a(cmd_fat.o)
                              (__u_boot_cmd_fatload)
common/libcommon.a(cmd_flash.o)
                              (__u_boot_cmd_flinfo)
common/libcommon.a(cmd_i2c.o)
                              (__u_boot_cmd_i2c)
common/libcommon.a(cmd_itest.o)
                              (__u_boot_cmd_itest)
common/libcommon.a(cmd_jffs2.o)
                              (__u_boot_cmd_fsload)
common/libcommon.a(cmd_load.o)
                              (__u_boot_cmd_loads)
common/libcommon.a(cmd_mem.o)
                              (__u_boot_cmd_md)
common/libcommon.a(cmd_misc.o)
                              (__u_boot_cmd_sleep)
common/libcommon.a(cmd_mmc.o)
                              (__u_boot_cmd_mmc)
common/libcommon.a(cmd_mtdparts.o)
                              common/libcommon.a(cmd_flash.o) (mtd_id_parse)
common/libcommon.a(cmd_nand.o)
                              (__u_boot_cmd_nand)
common/libcommon.a(cmd_net.o)
                              (__u_boot_cmd_bootp)
common/libcommon.a(cmd_nvedit.o)
                              net/libnet.a(eth.o) (get_env_id)
common/libcommon.a(cmd_reginfo.o)
                              (__u_boot_cmd_reginfo)
common/libcommon.a(cmd_source.o)
                              (__u_boot_cmd_source)
common/libcommon.a(cmd_usb.o)
                              (__u_boot_cmd_usb)
common/libcommon.a(cmd_usbslave.o)
                              (__u_boot_cmd_usbslave)
common/libcommon.a(cmd_ximg.o)
                              (__u_boot_cmd_imxtract)
common/libcommon.a(command.o)
                              common/libcommon.a(cmd_i2c.o) (cmd_get_data_size)
common/libcommon.a(console.o)
                              lib_arm/libarm.a(board.o) (printf)
common/libcommon.a(dlmalloc.o)
                              drivers/mtd/nand/libnand.a(nand_base.o) (free)
common/libcommon.a(env_common.o)
                              common/libcommon.a(cmd_nvedit.o) (env_get_addr)
common/libcommon.a(env_nand.o)
                              common/libcommon.a(env_common.o) (env_get_char_spec)
common/libcommon.a(exports.o)
                              lib_arm/libarm.a(board.o) (jumptable_init)
common/libcommon.a(flash.o)   common/libcommon.a(cmd_load.o) (addr2info)
common/libcommon.a(hush.o)    common/libcommon.a(cmd_bootm.o) (parse_string_outer)
common/libcommon.a(image.o)   common/libcommon.a(cmd_ximg.o) (image_multi_count)
common/libcommon.a(main.o)    common/libcommon.a(cmd_nvedit.o) (do_run)
common/libcommon.a(s_record.o)
                              common/libcommon.a(cmd_load.o) (srec_decode)
common/libcommon.a(stdio.o)   common/libcommon.a(cmd_console.o) (stdio_get_list)
common/libcommon.a(usb.o)     common/libcommon.a(cmd_usb.o) (usb_get_dev_index)
common/libcommon.a(usb_storage.o)
                              common/libcommon.a(cmd_usb.o) (usb_stor_get_dev)
common/libcommon.a(xyzModem.o)
                              common/libcommon.a(cmd_load.o) (xyzModem_error)
board/tekkamanninja/mini2440/libmini2440.a(mini2440.o)
                              lib_arm/libarm.a(board.o) (dram_init)
board/tekkamanninja/mini2440/libmini2440.a(flash.o)
                              common/libcommon.a(flash.o) (write_buff)
lib_generic/libgeneric.a(crc16.o)
                              common/libcommon.a(xyzModem.o) (cyg_crc16)
lib_generic/libgeneric.a(crc32.o)
                              common/libcommon.a(cmd_i2c.o) (crc32)
lib_generic/libgeneric.a(ctype.o)
                              common/libcommon.a(cmd_mtdparts.o) (_ctype)
lib_generic/libgeneric.a(display_options.o)
                              lib_arm/libarm.a(board.o) (print_size)
lib_generic/libgeneric.a(gunzip.o)
                              common/libcommon.a(cmd_bmp.o) (gunzip)
lib_generic/libgeneric.a(lmb.o)
                              common/libcommon.a(cmd_bootm.o) (lmb_init)
lib_generic/libgeneric.a(string.o)
                              net/libnet.a(net.o) (strcpy)
lib_generic/libgeneric.a(vsprintf.o)
                              lib_arm/libarm.a(board.o) (simple_strtoul)
lib_generic/libgeneric.a(zlib.o)
                              lib_generic/libgeneric.a(gunzip.o) (inflateInit2_)
lib_generic/libgeneric.a(div64.o)
                              lib_generic/libgeneric.a(vsprintf.o) (__div64_32)
cpu/arm920t/s3c24x0/libs3c24x0.a(interrupts.o)
                              lib_arm/libarm.a(interrupts.o) (arch_interrupt_init)
cpu/arm920t/s3c24x0/libs3c24x0.a(speed.o)
                              drivers/i2c/libi2c.a(s3c24x0_i2c.o) (get_PCLK)
cpu/arm920t/s3c24x0/libs3c24x0.a(timer.o)
                              board/tekkamanninja/mini2440/libmini2440.a(flash.o) (reset_timer_masked)
cpu/arm920t/s3c24x0/libs3c24x0.a(usb_ohci.o)
                              common/libcommon.a(usb.o) (submit_int_msg)
cpu/arm920t/s3c24x0/libs3c24x0.a(mmc.o)
                              common/libcommon.a(cmd_mem.o) (mmc2info)
lib_arm/libarm.a(bootm.o)     common/libcommon.a(cmd_bootm.o) (do_bootm_linux)
lib_arm/libarm.a(cache.o)     common/libcommon.a(cmd_elf.o) (flush_cache)
lib_arm/libarm.a(cache-cp15.o)
                              common/libcommon.a(cmd_cache.o) (icache_enable)
lib_arm/libarm.a(reset.o)     common/libcommon.a(cmd_boot.o) (do_reset)
fs/fat/libfat.a(fat.o)        common/libcommon.a(cmd_fat.o) (file_fat_detectfs)
fs/jffs2/libjffs2.a(jffs2_1pass.o)
                              common/libcommon.a(cmd_jffs2.o) (jffs2_1pass_info)
fs/jffs2/libjffs2.a(compr_rtime.o)
                              fs/jffs2/libjffs2.a(jffs2_1pass.o) (rtime_decompress)
fs/jffs2/libjffs2.a(compr_rubin.o)
                              fs/jffs2/libjffs2.a(jffs2_1pass.o) (dynrubin_decompress)
fs/jffs2/libjffs2.a(compr_zlib.o)
                              fs/jffs2/libjffs2.a(jffs2_1pass.o) (zlib_decompress)
fs/jffs2/libjffs2.a(mini_inflate.o)
                              fs/jffs2/libjffs2.a(compr_zlib.o) (decompress_block)
disk/libdisk.a(part.o)        common/libcommon.a(cmd_usb.o) (print_part)
disk/libdisk.a(part_dos.o)    disk/libdisk.a(part.o) (test_part_dos)
drivers/mtd/libmtd.a(mtdcore.o)
                              drivers/mtd/nand/libnand.a(nand.o) (add_mtd_device)
drivers/mtd/nand/libnand.a(nand_util.o)
                              common/libcommon.a(cmd_nand.o) (nand_read_skip_bad)
drivers/net/libnet.a(dm9000x.o)
                              board/tekkamanninja/mini2440/libmini2440.a(mini2440.o) (dm9000_initialize)
drivers/rtc/librtc.a(date.o)  common/libcommon.a(cmd_date.o) (GregorianDay)
drivers/rtc/librtc.a(s3c24x0_rtc.o)
                              common/libcommon.a(cmd_date.o) (rtc_get)
drivers/video/libvideo.a(cfb_console.o)
                              common/libcommon.a(cmd_bmp.o) (video_display_bitmap)
drivers/video/libvideo.a(s3c2410_fb.o)
                              drivers/video/libvideo.a(cfb_console.o) (video_set_lut)
drivers/video/libvideo.a(videomodes.o)
                              drivers/video/libvideo.a(s3c2410_fb.o) (video_get_params)
cpu/arm920t/libarm920t.a(cpu.o)
                              lib_arm/libarm.a(bootm.o) (cleanup_before_linux)
/home/bamboo/work/ok2440/cross_tools/4.3.2/bin/../lib/gcc/arm-none-linux-gnueabi/4.3.2/armv4t/libgcc.a(_udivsi3.o)
                              net/libnet.a(bootp.o) (__aeabi_uidiv)
/home/bamboo/work/ok2440/cross_tools/4.3.2/bin/../lib/gcc/arm-none-linux-gnueabi/4.3.2/armv4t/libgcc.a(_divsi3.o)
                              common/libcommon.a(cmd_date.o) (__aeabi_idiv)
/home/bamboo/work/ok2440/cross_tools/4.3.2/bin/../lib/gcc/arm-none-linux-gnueabi/4.3.2/armv4t/libgcc.a(_lshrdi3.o)
                              drivers/mtd/nand/libnand.a(nand_base.o) (__aeabi_llsr)
/home/bamboo/work/ok2440/cross_tools/4.3.2/bin/../lib/gcc/arm-none-linux-gnueabi/4.3.2/armv4t/libgcc.a(_ashrdi3.o)
                              drivers/mtd/nand/libnand.a(nand_base.o) (__aeabi_lasr)
/home/bamboo/work/ok2440/cross_tools/4.3.2/bin/../lib/gcc/arm-none-linux-gnueabi/4.3.2/armv4t/libgcc.a(_ashldi3.o)
                              drivers/mtd/nand/libnand.a(nand_base.o) (__aeabi_llsl)
/home/bamboo/work/ok2440/cross_tools/4.3.2/bin/../lib/gcc/arm-none-linux-gnueabi/4.3.2/armv4t/libgcc.a(_dvmd_lnx.o)
                              /home/bamboo/work/ok2440/cross_tools/4.3.2/bin/../lib/gcc/arm-none-linux-gnueabi/4.3.2/armv4t/libgcc.a(_udivsi3.o) (__aeabi_idiv0)

Memory Configuration

Name             Origin             Length             Attributes
*default*        0x00000000         0xffffffff

Linker script and memory map

                0x00000000                . = 0x0
                0x00000000                . = ALIGN (0x4)

.text           0x33f80000    0x2ff5c
 cpu/arm920t/start.o(.text)
 .text          0x33f80000      0x4e0 cpu/arm920t/start.o
                0x33f80050                IRQ_STACK_START
                0x33f80048                _bss_start
                0x33f8004c                _bss_end
                0x33f80044                _armboot_start
                0x33f80000                _start
                0x33f80054                FIQ_STACK_START
 board/tekkamanninja/mini2440/lowlevel_init.o(.text)
 .text          0x33f804e0       0x70 board/tekkamanninja/mini2440/lowlevel_init.o
                0x33f804e4                lowlevel_init
 board/tekkamanninja/mini2440/nand_read.o(.text)
 .text          0x33f80550      0x304 board/tekkamanninja/mini2440/nand_read.o
                0x33f8062c                nand_read_ll
 *(.text)
 .text          0x33f80854      0x2c8 lib_arm/libarm.a(board.o)
                0x33f80854                hang
                0x33f8096c                start_armboot
 .text          0x33f80b1c      0x294 lib_arm/libarm.a(interrupts.o)
                0x33f80ca4                do_fiq
                0x33f80d7c                interrupt_init
                0x33f80d58                do_undefined_instruction
                0x33f80b48                show_regs
                0x33f80c88                bad_mode
                0x33f80d10                do_prefetch_abort
                0x33f80b2c                disable_interrupts
                0x33f80cc8                do_not_used
                0x33f80cec                do_data_abort
                0x33f80d34                do_software_interrupt
                0x33f80b1c                enable_interrupts
 .text          0x33f80db0      0x750 net/libnet.a(eth.o)
                0x33f80f08                eth_get_dev_by_name
                0x33f80e54                eth_halt
                0x33f80db0                cpu_eth_init
                0x33f810b0                eth_register
                0x33f811d0                eth_getenv_enetaddr
                0x33f80db8                eth_get_dev
                0x33f81174                eth_parse_enetaddr
                0x33f81000                eth_try_another
                0x33f81228                eth_getenv_enetaddr_by_index
                0x33f81330                eth_initialize
                0x33f80f5c                eth_set_current
                0x33f80ebc                eth_rx
                0x33f80e08                eth_get_dev_index
                0x33f81274                eth_init
                0x33f8113c                eth_setenv_enetaddr
                0x33f80ee8                eth_get_name
                0x33f80dc8                eth_get_dev_by_index
                0x33f80e88                eth_send
 .text          0x33f81500     0x13cc net/libnet.a(net.o)
                0x33f816e0                getenv_IPaddr
                0x33f815a4                NetCksumOk
                0x33f817e8                NetSetTimeout
                0x33f815c8                copy_filename
                0x33f816f0                NetEthHdrSize
                0x33f8178c                ip_to_string
                0x33f82424                ArpTimeoutCheck
                0x33f81a30                NetReceive
                0x33f8167c                string_to_ip
                0x33f821c4                NetSendUDPPacket
                0x33f81918                NetSetEther
                0x33f82498                NetLoop
                0x33f81f9c                ArpRequest
                0x33f817cc                random_port
                0x33f81734                VLAN_to_string
                0x33f8166c                getenv_VLAN
                0x33f8155c                NetCksum
                0x33f81820                NetSetIP
                0x33f81620                string_to_VLAN
                0x33f8231c                NetStartAgain
                0x33f8154c                NetSetHandler
                0x33f82088                PingSend
                0x33f81a2c                NetSendPacket
 .text          0x33f828cc      0xe98 net/libnet.a(nfs.o)
                0x33f830d0                NfsStart
 .text          0x33f83764      0x1ac net/libnet.a(rarp.o)
                0x33f83764                RarpRequest
 .text          0x33f83910      0x740 net/libnet.a(tftp.o)
                0x33f83aa8                TftpStart
 .text          0x33f84050      0x9e8 net/libnet.a(bootp.o)
                0x33f84694                DhcpRequest
                0x33f844cc                BootpRequest
 .text          0x33f84a38      0x678 drivers/i2c/libi2c.a(s3c24x0_i2c.o)
                0x33f84dc4                i2c_write
                0x33f84f1c                i2c_probe
                0x33f84e6c                i2c_read
                0x33f84f58                i2c_init
 .text          0x33f850b0       0xe0 drivers/mtd/nand/libnand.a(nand.o)
                0x33f850b0                nand_init
 .text          0x33f85190     0x3a74 drivers/mtd/nand/libnand.a(nand_base.o)
                0x33f88004                nand_wait_ready
                0x33f864a4                nand_scan_ident
                0x33f86f74                nand_scan
                0x33f87bac                nand_erase_nand
                0x33f86a14                nand_scan_tail
                0x33f8645c                nand_release
 .text          0x33f88c04     0x17a8 drivers/mtd/nand/libnand.a(nand_bbt.o)
                0x33f88d08                nand_isbad_bbt
                0x33f8a2e8                nand_default_bbt
                0x33f89bb0                nand_update_bbt
                0x33f89e80                nand_scan_bbt
 .text          0x33f8a3ac      0x224 drivers/mtd/nand/libnand.a(nand_ecc.o)
                0x33f8a4a4                nand_correct_data
                0x33f8a3ac                nand_calculate_ecc
 .text          0x33f8a5d0        0x0 drivers/mtd/nand/libnand.a(nand_ids.o)
 .text          0x33f8a5d0       0xf0 drivers/mtd/nand/libnand.a(s3c2410_nand.o)
                0x33f8a654                board_nand_init
 .text          0x33f8a6c0      0x130 drivers/serial/libserial.a(serial_s3c24x0.o)
                0x33f8a780                _serial_setbrg
                0x33f8a7e8                serial_setbrg
                0x33f8a72c                _serial_tstc
                0x33f8a740                serial_tstc
                0x33f8a6f0                serial_putc
                0x33f8a748                _serial_puts
                0x33f8a7a8                serial_init
                0x33f8a778                serial_puts
                0x33f8a6cc                _serial_getc
                0x33f8a6e8                serial_getc
                0x33f8a6f8                _serial_putc
 .text          0x33f8a7f0      0x37c drivers/usb/slave/libusb_slave.a(usbinit.o)
                0x33f8a804                HaltDabort
                0x33f8a82c                HaltSwi
                0x33f8a840                HaltUndef
                0x33f8a8b8                awaitkey
                0x33f8a7f0                udc_disconnect
                0x33f8a854                usb_init_slave
                0x33f8a818                HaltPabort
                0x33f8a928                usb_receive
 .text          0x33f8ab6c      0x26c drivers/usb/slave/libusb_slave.a(interrupt.o)
                0x33f8ace8                Dummy_isr
                0x33f8ab6c                ClearPending_my
                0x33f8ac10                Isr_Init
                0x33f8abc0                IsrWatchdog
                0x33f8ab7c                Timer_InitEx
                0x33f8ad08                Timer_StopEx
                0x33f8ad7c                Timer_StartEx
                0x33f8ac9c                IRQ_Handle
                0x33f8abf0                IsrTimer4
 .text          0x33f8add8      0x2ac drivers/usb/slave/libusb_slave.a(usblib.o)
                0x33f8aecc                RdPktEp0
                0x33f8af6c                RdPktEp3
                0x33f8afbc                ConfigEp3DmaMode
                0x33f8aeb0                ConfigUsbd
                0x33f8af44                WrPktEp2
                0x33f8b048                ConfigEp3IntMode
                0x33f8af94                RdPktEp4
                0x33f8aef4                WrPktEp0
                0x33f8af1c                WrPktEp1
                0x33f8add8                ReconfigUsbd
 .text          0x33f8b084      0x11c drivers/usb/slave/libusb_slave.a(usbmain.o)
                0x33f8b0b4                DbgPrintf
                0x33f8b18c                UsbdMain
                0x33f8b084                _WrDbgStrFifo
                0x33f8b0c0                IsrUsbd
 .text          0x33f8b1a0      0x39c drivers/usb/slave/libusb_slave.a(usbout.o)
                0x33f8b39c                Ep3Handler
                0x33f8b1f4                ClearEp3OutPktReady
                0x33f8b214                IsrDma2
 .text          0x33f8b53c      0xbf0 drivers/usb/slave/libusb_slave.a(usbsetup.o)
                0x33f8b660                PrintEp0Pkt
                0x33f8b53c                InitDescriptorTable
                0x33f8b6a4                Ep0Handler
 .text          0x33f8c12c       0xa0 drivers/usb/slave/libusb_slave.a(usbin.o)
                0x33f8c12c                PrepareEp1Fifo
                0x33f8c190                Ep1Handler
 .text          0x33f8c1cc       0xec common/libcommon.a(cmd_bdinfo.o)
                0x33f8c1e0                do_bdinfo
 .text          0x33f8c2b8      0x2d0 common/libcommon.a(cmd_bmp.o)
                0x33f8c2b8                gunzip_bmp
                0x33f8c35c                do_bmp
 .text          0x33f8c588       0x94 common/libcommon.a(cmd_boot.o)
                0x33f8c5a4                do_go
                0x33f8c588                do_go_exec
 .text          0x33f8c61c      0xe08 common/libcommon.a(cmd_bootm.o)
                0x33f8c648                arch_lmb_reserve
                0x33f8c860                do_bootd
                0x33f8c648                __arch_lmb_reserve
                0x33f8c64c                arch_preboot_os
                0x33f8d190                do_bootm
                0x33f8cfb4                do_bootm_subcommand
                0x33f8c644                board_lmb_reserve
                0x33f8c644                __board_lmb_reserve
                0x33f8c64c                __arch_preboot_os
                0x33f8c7f4                do_iminfo
 .text          0x33f8d424      0x12c common/libcommon.a(cmd_cache.o)
                0x33f8d460                do_dcache
                0x33f8d4d8                do_icache
 .text          0x33f8d550       0xe4 common/libcommon.a(cmd_console.o)
                0x33f8d550                do_coninfo
 .text          0x33f8d634      0x338 common/libcommon.a(cmd_date.o)
                0x33f8d848                do_date
                0x33f8d678                mk_date
 .text          0x33f8d96c      0x21c common/libcommon.a(cmd_eeprom.o)
                0x33f8da74                do_eeprom
                0x33f8d988                eeprom_write
                0x33f8da00                eeprom_read
                0x33f8d96c                eeprom_init
                0x33f8d97c                eeprom_probe
 .text          0x33f8db88      0x470 common/libcommon.a(cmd_elf.o)
                0x33f8df60                do_bootelf
                0x33f8dc94                do_bootvx
                0x33f8dc20                valid_elf_image
                0x33f8df20                do_bootelf_exec
                0x33f8db88                load_elf_image
 .text          0x33f8dff8      0x35c common/libcommon.a(cmd_fat.o)
                0x33f8e1d4                do_fat_fsload
                0x33f8dff8                do_fat_fsinfo
                0x33f8e0d0                do_fat_ls
 .text          0x33f8e354      0xcc8 common/libcommon.a(cmd_flash.o)
                0x33f8efa0                do_flinfo
                0x33f8ec68                flash_sect_erase
                0x33f8e8d0                do_protect
                0x33f8ed48                do_flerase
                0x33f8e5c8                flash_sect_protect
                0x33f8e354                flash_sect_roundb
 .text          0x33f8f01c      0xa98 common/libcommon.a(cmd_i2c.o)
                0x33f8f8a4                do_i2c
                0x33f8f03c                __def_i2c_get_bus_speed
                0x33f8f048                __def_i2c_set_bus_speed
                0x33f8f758                do_i2c_crc
                0x33f8f408                do_i2c_mw
                0x33f8f048                i2c_set_bus_speed
                0x33f8f52c                do_i2c_probe
                0x33f8f060                do_i2c_bus_speed
                0x33f8f578                do_i2c_md
                0x33f8f03c                i2c_get_bus_speed
                0x33f8f2fc                do_i2c_loop
 .text          0x33f8fab4      0x2e4 common/libcommon.a(cmd_itest.o)
                0x33f8fb1c                binary_test
                0x33f8fcfc                do_itest
 .text          0x33f8fd98      0x29c common/libcommon.a(cmd_jffs2.o)
                0x33f8fe2c                do_jffs2_fsinfo
                0x33f8fe90                do_jffs2_ls
                0x33f8fef0                do_jffs2_fsload
 .text          0x33f90034      0xe54 common/libcommon.a(cmd_load.o)
                0x33f900c0                k_data_init
                0x33f901a0                s1_sendpacket
                0x33f901cc                handle_send_packet
                0x33f90100                k_data_restore
                0x33f90390                send_nack
                0x33f906f0                do_load_serial_bin
                0x33f90120                k_data_char
                0x33f90054                chk1
                0x33f900e0                k_data_save
                0x33f90034                ktrans
                0x33f90170                send_pad
                0x33f903f0                send_ack
                0x33f90dac                do_load_serial
 .text          0x33f90e88      0xad0 common/libcommon.a(cmd_mem.o)
                0x33f90fc0                do_mem_base
                0x33f9143c                do_mem_mw
                0x33f90f14                do_mem_crc
                0x33f91840                do_mem_nm
                0x33f91860                do_mem_mm
                0x33f90e88                do_unzip
                0x33f91504                do_mem_cp
                0x33f91004                do_mem_mtest
                0x33f912a4                do_mem_cmp
                0x33f911ac                do_mem_loop
                0x33f91880                do_mem_md
 .text          0x33f91958       0x84 common/libcommon.a(cmd_misc.o)
                0x33f91958                do_sleep
 .text          0x33f919dc      0x13c common/libcommon.a(cmd_mmc.o)
                0x33f919dc                do_mmc
 .text          0x33f91b18     0x1fa4 common/libcommon.a(cmd_mtdparts.o)
                0x33f920d4                mtd_id_parse
                0x33f92e84                mtdparts_init
                0x33f93460                do_mtdparts
                0x33f921e0                find_dev_and_part
                0x33f939f0                do_chpart
                0x33f92b04                mtd_device_validate
 .text          0x33f93abc     0x110c common/libcommon.a(cmd_nand.o)
                0x33f93f1c                do_nandboot
                0x33f94390                do_nand
 .text          0x33f94bc8      0x3c4 common/libcommon.a(cmd_net.o)
                0x33f94f68                do_rarpb
                0x33f94bc8                do_ping
                0x33f94f74                do_tftpb
                0x33f94f5c                do_dhcp
                0x33f94f80                do_bootp
                0x33f94f50                do_nfs
 .text          0x33f94f8c      0x9c0 common/libcommon.a(cmd_nvedit.o)
                0x33f950cc                getenv
                0x33f95134                _do_setenv
                0x33f95578                do_askenv
                0x33f94ffc                getenv_r
                0x33f958b8                do_printenv
                0x33f9571c                setenv
                0x33f94f8c                get_env_id
                0x33f950a0                do_saveenv
                0x33f956f0                do_setenv
                0x33f95768                do_editenv
                0x33f94f9c                envmatch
 .text          0x33f9594c        0x8 common/libcommon.a(cmd_reginfo.o)
                0x33f9594c                do_reginfo
 .text          0x33f95954      0x198 common/libcommon.a(cmd_source.o)
                0x33f95974                source
                0x33f95aa4                do_source
 .text          0x33f95aec     0x10c0 common/libcommon.a(cmd_usb.o)
                0x33f965cc                usb_display_conf_desc
                0x33f9617c                usb_show_tree_graph
                0x33f95aec                usb_get_class_desc
                0x33f95b94                usb_display_ep_desc
                0x33f963d8                usb_display_desc
                0x33f95c5c                usb_display_class_sub
                0x33f963a4                usb_show_tree
                0x33f96508                usb_display_string
                0x33f96544                usb_display_if_desc
                0x33f96678                usb_display_config
                0x33f95dd0                do_usbboot
                0x33f96708                do_usb
 .text          0x33f96bac      0x14c common/libcommon.a(cmd_usbslave.o)
                0x33f96bac                do_usbslave
 .text          0x33f96cf8      0x23c common/libcommon.a(cmd_ximg.o)
                0x33f96cf8                do_imgextract
 .text          0x33f96f34      0xe10 common/libcommon.a(command.o)
                0x33f97130                find_cmd_tbl
                0x33f96fac                do_echo
                0x33f97028                cmd_usage
                0x33f971f0                cmd_auto_complete
                0x33f97898                do_exit
                0x33f971c8                find_cmd
                0x33f96f34                cmd_get_data_size
                0x33f978c8                do_test
                0x33f976d0                _do_help
                0x33f97690                install_auto_complete
                0x33f9784c                do_help
                0x33f970a8                var_complete
                0x33f97088                do_version
 .text          0x33f97d44      0x5bc common/libcommon.a(console.o)
                0x33f98130                console_init_r
                0x33f98038                printf
                0x33f97fcc                console_assign
                0x33f97eec                getc
                0x33f97fa4                search_device
                0x33f97f88                puts
                0x33f97ed0                dbg
                0x33f982c0                serial_printf
                0x33f97e1c                ftstc
                0x33f98278                fprintf
                0x33f97f04                tstc
                0x33f9800c                vprintf
                0x33f97f1c                ctrlc
                0x33f97f6c                putc
                0x33f97e94                disable_ctrlc
                0x33f97df4                fgetc
                0x33f97eac                had_ctrlc
                0x33f97e44                fputc
                0x33f97edc                console_init_f
                0x33f97ebc                clear_ctrlc
                0x33f98078                stdio_print_current_devices
                0x33f97e6c                fputs
 .text          0x33f98300     0x1098 common/libcommon.a(dlmalloc.o)
                0x33f98640                malloc
                0x33f98d48                pvalloc
                0x33f98e1c                calloc
                0x33f98d6c                malloc_usable_size
                0x33f98efc                mem_malloc_init
                0x33f98f28                realloc
                0x33f98334                malloc_trim
                0x33f98300                sbrk
                0x33f98db0                mallopt
                0x33f98c38                memalign
                0x33f9863c                cfree
                0x33f98d60                valloc
                0x33f98400                free
 .text          0x33f99398      0x270 common/libcommon.a(env_common.o)
                0x33f993d8                env_get_char
                0x33f993b8                env_get_addr
                0x33f99568                set_default_env
                0x33f99408                env_complete
                0x33f995b0                env_relocate
                0x33f9953c                env_crc_update
                0x33f99398                env_get_char_memory
 .text          0x33f99608      0x29c common/libcommon.a(env_nand.o)
                0x33f997b8                env_relocate_spec
                0x33f99804                saveenv
                0x33f99618                env_get_char_spec
                0x33f99624                env_init
                0x33f99640                writeenv
                0x33f996f0                readenv
 .text          0x33f998a4      0x108 common/libcommon.a(exports.o)
                0x33f998b0                jumptable_init
                0x33f998a8                get_version
 .text          0x33f999ac      0x384 common/libcommon.a(flash.o)
                0x33f99bcc                flash_write
                0x33f999ac                flash_protect
                0x33f99aa4                addr2info
                0x33f99aec                flash_perror
 .text          0x33f99d30     0x1d6c common/libcommon.a(hush.o)
                0x33f99ffc                new_pipe
                0x33f99e6c                mapset
                0x33f9b22c                parse_string_outer
                0x33f9ab9c                update_ifs_map
                0x33f9a9ec                set_local_var
                0x33f9b1e8                parse_file_outer
                0x33f99d4c                simple_itoa
                0x33f9a2fc                unset_local_var
                0x33f99ea4                do_showvar
                0x33f9a4c0                reserved_word
                0x33f99f8c                u_boot_hush_start
 .text          0x33f9ba9c      0x7f4 common/libcommon.a(image.o)
                0x33f9bd3c                getenv_bootm_size
                0x33f9bdc8                image_print_contents
                0x33f9bbe0                genimg_get_comp_id
                0x33f9bc28                genimg_get_os_id
                0x33f9bb00                get_table_entry_name
                0x33f9bb8c                genimg_has_config
                0x33f9bc10                genimg_get_arch_id
                0x33f9bb40                genimg_get_arch_name
                0x33f9c044                boot_get_ramdisk
                0x33f9bff0                image_check_hcrc
                0x33f9bb28                genimg_get_os_name
                0x33f9bb58                genimg_get_type_name
                0x33f9bc64                genimg_get_format
                0x33f9bb70                genimg_get_comp_name
                0x33f9bfa8                image_check_dcrc
                0x33f9bd0c                genimg_print_size
                0x33f9bd70                getenv_bootm_low
                0x33f9bb88                genimg_get_image
                0x33f9bbf8                genimg_get_type_id
                0x33f9bad8                image_multi_count
                0x33f9bd38                memmove_wd
                0x33f9bb94                get_table_entry_id
                0x33f9bc88                image_multi_getimg
                0x33f9bda4                getenv_yesno
 .text          0x33f9c290     0x1154 common/libcommon.a(main.o)
                0x33f9c290                __show_boot_progress
                0x33f9c390                run_command
                0x33f9c320                do_run
                0x33f9c294                parse_line
                0x33f9d2c8                readline
                0x33f9c290                show_boot_progress
                0x33f9d2e4                main_loop
                0x33f9c998                readline_into_buffer
 .text          0x33f9d3e4      0x2dc common/libcommon.a(s_record.o)
                0x33f9d450                srec_decode
 .text          0x33f9d6c0      0x1f0 common/libcommon.a(stdio.o)
                0x33f9d6dc                stdio_clone
                0x33f9d6c8                nulldev_input
                0x33f9d6d0                stdio_get_list
                0x33f9d85c                stdio_get_by_name
                0x33f9d6c0                nulldev_putc
                0x33f9d764                stdio_init
                0x33f9d6c4                nulldev_puts
                0x33f9d724                stdio_register
 .text          0x33f9d8b0     0x1664 common/libcommon.a(usb.o)
                0x33f9e348                usb_set_idle
                0x33f9d8c8                usb_maxpacket
                0x33f9eb1c                usb_hub_probe
                0x33f9dc20                usb_stop
                0x33f9ee98                usb_init
                0x33f9d8b0                usb_disable_asynch
                0x33f9e688                usb_clear_halt
                0x33f9dc80                usb_bulk_msg
                0x33f9e268                usb_get_class_descriptor
                0x33f9ee1c                usb_scan_devices
                0x33f9df7c                usb_get_hub_descriptor
                0x33f9ddb4                usb_get_port_status
                0x33f9dc1c                usb_submit_int_msg
                0x33f9dac8                usb_parse_config
                0x33f9dce4                usb_control_msg
                0x33f9e3ac                usb_set_protocol
                0x33f9e820                usb_hub_port_connect_change
                0x33f9e474                usb_set_interface
                0x33f9d9e4                usb_hub_allocate
                0x33f9e168                usb_string
                0x33f9e2d8                usb_get_report
                0x33f9e584                usb_get_descriptor
                0x33f9e914                usb_hub_configure
                0x33f9dfd8                usb_get_string
                0x33f9dc5c                wait_ms
                0x33f9df28                usb_clear_hub_feature
                0x33f9e5f0                usb_get_configuration_no
                0x33f9dec8                usb_clear_port_feature
                0x33f9de68                usb_set_port_feature
                0x33f9eb7c                usb_new_device
                0x33f9de14                usb_get_hub_status
                0x33f9e40c                usb_set_configuration
                0x33f9d93c                usb_set_maxpacket
                0x33f9e540                usb_set_address
                0x33f9da28                usb_alloc_new_device
                0x33f9d9d0                usb_hub_reset
                0x33f9d9a0                usb_get_dev_index
 .text          0x33f9ef14     0x139c common/libcommon.a(usb_storage.o)
                0x33f9f300                usb_storage_probe
                0x33fa004c                usb_stor_CB_transport
                0x33f9faa4                usb_stor_CB_comdat
                0x33f9ef34                usb_stor_get_dev
                0x33f9f750                usb_stor_read
                0x33f9ef70                usb_show_progress
                0x33f9f95c                usb_stor_scan
                0x33f9fcd4                usb_stor_BBB_comdat
                0x33fa0240                usb_stor_info
                0x33f9f054                usb_stor_get_info
                0x33f9f530                usb_stor_BBB_clear_endpt_stall
                0x33f9ff7c                usb_stor_CBI_get_status
                0x33f9fdb0                usb_stor_BBB_transport
 .text          0x33fa02b0      0x9e0 common/libcommon.a(xyzModem.o)
                0x33fa03d8                xyzModem_error
                0x33fa0474                xyzModem_stream_close
                0x33fa04c8                CYGACC_COMM_IF_GETC_TIMEOUT
                0x33fa02b0                parse_num
                0x33fa0544                xyzModem_stream_terminate
                0x33fa0b2c                xyzModem_stream_open
                0x33fa04c0                CYGACC_COMM_IF_PUTC
                0x33fa08a0                xyzModem_stream_read
 .text          0x33fa0c90      0x1a0 board/tekkamanninja/mini2440/libmini2440.a(mini2440.o)
                0x33fa0cf4                dram_init
                0x33fa0c9c                board_video_init
                0x33fa0d14                board_eth_init
                0x33fa0d18                board_init
 .text          0x33fa0e30      0x594 board/tekkamanninja/mini2440/libmini2440.a(flash.o)
                0x33fa117c                flash_erase
                0x33fa131c                flash_init
                0x33fa1044                flash_print_info
                0x33fa0ed0                write_buff
 .text          0x33fa13c4       0x48 lib_generic/libgeneric.a(crc16.o)
                0x33fa13c4                cyg_crc16
 .text          0x33fa140c      0x224 lib_generic/libgeneric.a(crc32.o)
                0x33fa140c                crc32
                0x33fa162c                crc32_wd
                0x33fa1520                crc32_no_comp
 .text          0x33fa1630        0x0 lib_generic/libgeneric.a(ctype.o)
 .text          0x33fa1630      0x248 lib_generic/libgeneric.a(display_options.o)
                0x33fa1718                print_buffer
                0x33fa16f8                display_options
                0x33fa1630                print_size
 .text          0x33fa1878      0x1d4 lib_generic/libgeneric.a(gunzip.o)
                0x33fa196c                gunzip
                0x33fa1a34                zfree
                0x33fa1878                zunzip
                0x33fa1a3c                zalloc
 .text          0x33fa1a4c      0x570 lib_generic/libgeneric.a(lmb.o)
                0x33fa1dac                lmb_overlaps_region
                0x33fa1ca0                lmb_add
                0x33fa1a4c                lmb_dump_all
                0x33fa1ca4                lmb_free
                0x33fa1f84                lmb_alloc_base
                0x33fa1fb4                lmb_alloc
                0x33fa1e14                __lmb_alloc_base
                0x33fa1ab0                lmb_init
                0x33fa1f24                lmb_is_reserved
                0x33fa1da4                lmb_reserve
 .text          0x33fa1fbc      0x648 lib_generic/libgeneric.a(string.o)
                0x33fa1fbc                strcpy
                0x33fa2510                memscan
                0x33fa2474                memmove
                0x33fa23f8                memcpy
                0x33fa2304                strswab
                0x33fa21a4                strnlen
                0x33fa216c                strrchr
                0x33fa2000                strcat
                0x33fa25a4                memchr
                0x33fa2540                strstr
                0x33fa20d0                strncmp
                0x33fa1fd8                strncpy
                0x33fa23cc                bcopy
                0x33fa2250                strtok
                0x33fa24d0                memcmp
                0x33fa2034                strncat
                0x33fa25d4                strdup
                0x33fa2350                memset
                0x33fa2098                strcmp
                0x33fa22d0                strsep
                0x33fa21cc                strspn
                0x33fa214c                strlen
                0x33fa2120                strchr
                0x33fa2210                strpbrk
 .text          0x33fa2604      0xdcc lib_generic/libgeneric.a(vsprintf.o)
                0x33fa2d2c                vsprintf
                0x33fa270c                ustrtoul
                0x33fa26e4                simple_strtol
                0x33fa2894                panic
                0x33fa33a8                sprintf
                0x33fa262c                simple_strtoul
 .text          0x33fa33d0     0x27e4 lib_generic/libgeneric.a(zlib.o)
                0x33fa4470                inflate
                0x33fa33d0                inflate_fast
                0x33fa408c                inflateInit_
                0x33fa4124                adler32
                0x33fa4460                zcfree
                0x33fa3ee4                inflateReset
                0x33fa4468                zcalloc
                0x33fa409c                inflateEnd
                0x33fa3f84                inflateInit2_
                0x33fa3950                inflate_table
 .text          0x33fa5bb4       0xf4 lib_generic/libgeneric.a(div64.o)
                0x33fa5bb4                __div64_32
 .text          0x33fa5ca8       0x14 cpu/arm920t/s3c24x0/libs3c24x0.a(interrupts.o)
                0x33fa5cb4                arch_interrupt_init
                0x33fa5ca8                do_irq
 .text          0x33fa5cbc      0x154 cpu/arm920t/s3c24x0/libs3c24x0.a(speed.o)
                0x33fa5d44                get_HCLK
                0x33fa5de8                get_PCLK
                0x33fa5d3c                get_FCLK
                0x33fa5d34                get_UCLK
 .text          0x33fa5e10      0x244 cpu/arm920t/s3c24x0/libs3c24x0.a(timer.o)
                0x33fa5e24                set_timer
                0x33fa5e54                reset_timer
                0x33fa5fb0                get_tbclk
                0x33fa5f48                get_timer
                0x33fa5e34                reset_timer_masked
                0x33fa5fd8                timer_init
                0x33fa5f18                get_timer_masked
                0x33fa5f5c                udelay
                0x33fa5ea4                udelay_masked
                0x33fa5fb8                reset_cpu
                0x33fa5e58                get_ticks
 .text          0x33fa6054     0x15fc cpu/arm920t/s3c24x0/libs3c24x0.a(usb_ohci.o)
                0x33fa6160                rh_check_port_status
                0x33fa6308                usb_lowlevel_stop
                0x33fa6540                sohci_submit_job
                0x33fa61b4                submit_int_msg
                0x33fa6fe8                submit_bulk_msg
                0x33fa7000                submit_control_msg
                0x33fa6350                usb_lowlevel_init
                0x33fa6aec                submit_common_msg
 .text          0x33fa7650      0xb1c cpu/arm920t/s3c24x0/libs3c24x0.a(mmc.o)
                0x33fa765c                mmc_ident
                0x33fa7ef8                mmc_write
                0x33fa7764                mmc_init
                0x33fa7650                mmc_get_dev
                0x33fa7664                mmc2info
                0x33fa8148                mmc_bread
                0x33fa803c                mmc_read
 .text          0x33fa816c      0x1cc lib_arm/libarm.a(bootm.o)
                0x33fa816c                do_bootm_linux
 .text          0x33fa8338        0x4 lib_arm/libarm.a(cache.o)
                0x33fa8338                flush_cache
 .text          0x33fa833c       0xc8 lib_arm/libarm.a(cache-cp15.o)
                0x33fa83e0                dcache_enable
                0x33fa83bc                icache_enable
                0x33fa83c4                icache_disable
                0x33fa83f0                dcache_status
                0x33fa83cc                icache_status
                0x33fa83e8                dcache_disable
 .text          0x33fa8404       0x30 lib_arm/libarm.a(reset.o)
                0x33fa8404                do_reset
 .text          0x33fa8434     0x12fc fs/fat/libfat.a(fat.o)
                0x33fa95f8                file_fat_read
                0x33fa8c9c                do_fat_read
                0x33fa9630                file_fat_ls
                0x33fa8b3c                file_fat_detectfs
                0x33fa8460                disk_read
                0x33fa9640                fat_register_device
 .text          0x33fa9730     0x1cbc fs/jffs2/libjffs2.a(jffs2_1pass.o)
                0x33faa744                jffs2_1pass_load
                0x33faa25c                jffs2_1pass_info
                0x33fab398                jffs2_1pass_ls
                0x33fa9c10                jffs2_1pass_rescan_needed
                0x33fa9730                mkmodestr
                0x33fa9974                jffs2_free_cache
 .text          0x33fab3ec       0xd8 fs/jffs2/libjffs2.a(compr_rtime.o)
                0x33fab3ec                rtime_decompress
 .text          0x33fab4c4      0x13c fs/jffs2/libjffs2.a(compr_rubin.o)
                0x33fab5c0                dynrubin_decompress
                0x33fab4c4                rubin_do_decompress
 .text          0x33fab600       0x18 fs/jffs2/libjffs2.a(compr_zlib.o)
                0x33fab600                zlib_decompress
 .text          0x33fab618      0x914 fs/jffs2/libjffs2.a(mini_inflate.o)
                0x33fab99c                decompress_block
                0x33fab63c                pull_bits
                0x33fab698                pull_bit
                0x33fab618                cramfs_memset
 .text          0x33fabf2c      0x374 disk/libdisk.a(part.o)
                0x33fac008                dev_print
                0x33fabf2c                print_part
                0x33fac244                get_dev
                0x33fac204                get_partition_info
                0x33fac228                init_part
 .text          0x33fac2a0      0x4c8 disk/libdisk.a(part_dos.o)
                0x33fac564                get_partition_info_dos
                0x33fac73c                print_part_dos
                0x33fac2e8                test_part_dos
 .text          0x33fac768      0x1b4 drivers/mtd/libmtd.a(mtdcore.o)
                0x33fac804                del_mtd_device
                0x33fac8b8                get_mtd_device_nm
                0x33fac768                get_mtd_device
                0x33fac7d8                put_mtd_device
                0x33fac854                add_mtd_device
 .text          0x33fac91c      0x834 drivers/mtd/nand/libnand.a(nand_util.o)
                0x33facb98                nand_write_skip_bad
                0x33fac9ec                nand_read_skip_bad
                0x33face1c                nand_erase_opts
 .text          0x33fad150      0x890 drivers/net/libnet.a(dm9000x.o)
                0x33fad320                dm9000_initialize
 .text          0x33fad9e0      0x298 drivers/rtc/librtc.a(date.o)
                0x33fad9e0                GregorianDay
                0x33fadbe4                mktime
                0x33fadad4                to_tm
 .text          0x33fadc78      0x240 drivers/rtc/librtc.a(s3c24x0_rtc.o)
                0x33faddf4                rtc_set
                0x33fade94                rtc_reset
                0x33fadcf0                rtc_get
 .text          0x33fadeb8     0x16d8 drivers/video/libvideo.a(cfb_console.o)
                0x33fae6e0                video_puts
                0x33fae928                video_display_bitmap
                0x33faf2ec                drv_video_init
                0x33fae710                logo_plot
                0x33fae6d8                __board_video_skip
                0x33fae4fc                video_putc
                0x33fae6d8                board_video_skip
 .text          0x33faf590      0x240 drivers/video/libvideo.a(s3c2410_fb.o)
                0x33faf594                video_hw_init
                0x33faf590                video_set_lut
 .text          0x33faf7d0      0x48c drivers/video/libvideo.a(videomodes.o)
                0x33faf7f8                video_get_params
 .text          0x33fafc5c       0x20 cpu/arm920t/libarm920t.a(cpu.o)
                0x33fafc5c                cleanup_before_linux
 .text          0x33fafc7c       0x1c /home/bamboo/work/ok2440/u-boot_for_ok2440/lib_arm/eabi_compat.o
                0x33fafc7c                raise
 .text          0x33fafc98      0x114 /home/bamboo/work/ok2440/cross_tools/4.3.2/bin/../lib/gcc/arm-none-linux-gnueabi/4.3.2/armv4t/libgcc.a(_udivsi3.o)
                0x33fafc98                __udivsi3
                0x33fafc98                __aeabi_uidiv
                0x33fafd8c                __aeabi_uidivmod
 .text          0x33fafdac      0x148 /home/bamboo/work/ok2440/cross_tools/4.3.2/bin/../lib/gcc/arm-none-linux-gnueabi/4.3.2/armv4t/libgcc.a(_divsi3.o)
                0x33fafdac                __aeabi_idiv
                0x33fafdac                __divsi3
                0x33fafed4                __aeabi_idivmod
 .text          0x33fafef4       0x1c /home/bamboo/work/ok2440/cross_tools/4.3.2/bin/../lib/gcc/arm-none-linux-gnueabi/4.3.2/armv4t/libgcc.a(_lshrdi3.o)
                0x33fafef4                __aeabi_llsr
                0x33fafef4                __lshrdi3
 .text          0x33faff10       0x1c /home/bamboo/work/ok2440/cross_tools/4.3.2/bin/../lib/gcc/arm-none-linux-gnueabi/4.3.2/armv4t/libgcc.a(_ashrdi3.o)
                0x33faff10                __ashrdi3
                0x33faff10                __aeabi_lasr
 .text          0x33faff2c       0x1c /home/bamboo/work/ok2440/cross_tools/4.3.2/bin/../lib/gcc/arm-none-linux-gnueabi/4.3.2/armv4t/libgcc.a(_ashldi3.o)
                0x33faff2c                __ashldi3
                0x33faff2c                __aeabi_llsl
 .text          0x33faff48       0x14 /home/bamboo/work/ok2440/cross_tools/4.3.2/bin/../lib/gcc/arm-none-linux-gnueabi/4.3.2/armv4t/libgcc.a(_dvmd_lnx.o)
                0x33faff48                __aeabi_ldiv0
                0x33faff48                __aeabi_idiv0

.glue_7         0x33faff5c        0x0
 .glue_7        0x33faff5c        0x0 cpu/arm920t/start.o
 .glue_7        0x33faff5c        0x0 board/tekkamanninja/mini2440/lowlevel_init.o
 .glue_7        0x33faff5c        0x0 board/tekkamanninja/mini2440/nand_read.o
 .glue_7        0x33faff5c        0x0 lib_arm/libarm.a(board.o)
 .glue_7        0x33faff5c        0x0 lib_arm/libarm.a(interrupts.o)
 .glue_7        0x33faff5c        0x0 net/libnet.a(eth.o)
 .glue_7        0x33faff5c        0x0 net/libnet.a(net.o)
 .glue_7        0x33faff5c        0x0 net/libnet.a(nfs.o)
 .glue_7        0x33faff5c        0x0 net/libnet.a(rarp.o)
 .glue_7        0x33faff5c        0x0 net/libnet.a(tftp.o)
 .glue_7        0x33faff5c        0x0 net/libnet.a(bootp.o)
 .glue_7        0x33faff5c        0x0 drivers/i2c/libi2c.a(s3c24x0_i2c.o)
 .glue_7        0x33faff5c        0x0 drivers/mtd/nand/libnand.a(nand.o)
 .glue_7        0x33faff5c        0x0 drivers/mtd/nand/libnand.a(nand_base.o)
 .glue_7        0x33faff5c        0x0 drivers/mtd/nand/libnand.a(nand_bbt.o)
 .glue_7        0x33faff5c        0x0 drivers/mtd/nand/libnand.a(nand_ecc.o)
 .glue_7        0x33faff5c        0x0 drivers/mtd/nand/libnand.a(nand_ids.o)
 .glue_7        0x33faff5c        0x0 drivers/mtd/nand/libnand.a(s3c2410_nand.o)
 .glue_7        0x33faff5c        0x0 drivers/serial/libserial.a(serial_s3c24x0.o)
 .glue_7        0x33faff5c        0x0 drivers/usb/slave/libusb_slave.a(usbinit.o)
 .glue_7        0x33faff5c        0x0 drivers/usb/slave/libusb_slave.a(interrupt.o)
 .glue_7        0x33faff5c        0x0 drivers/usb/slave/libusb_slave.a(usblib.o)
 .glue_7        0x33faff5c        0x0 drivers/usb/slave/libusb_slave.a(usbmain.o)
 .glue_7        0x33faff5c        0x0 drivers/usb/slave/libusb_slave.a(usbout.o)
 .glue_7        0x33faff5c        0x0 drivers/usb/slave/libusb_slave.a(usbsetup.o)
 .glue_7        0x33faff5c        0x0 drivers/usb/slave/libusb_slave.a(usbin.o)
 .glue_7        0x33faff5c        0x0 common/libcommon.a(cmd_bdinfo.o)
 .glue_7        0x33faff5c        0x0 common/libcommon.a(cmd_bmp.o)
 .glue_7        0x33faff5c        0x0 common/libcommon.a(cmd_boot.o)
 .glue_7        0x33faff5c        0x0 common/libcommon.a(cmd_bootm.o)
 .glue_7        0x33faff5c        0x0 common/libcommon.a(cmd_cache.o)
 .glue_7        0x33faff5c        0x0 common/libcommon.a(cmd_console.o)
 .glue_7        0x33faff5c        0x0 common/libcommon.a(cmd_date.o)
 .glue_7        0x33faff5c        0x0 common/libcommon.a(cmd_eeprom.o)
 .glue_7        0x33faff5c        0x0 common/libcommon.a(cmd_elf.o)
 .glue_7        0x33faff5c        0x0 common/libcommon.a(cmd_fat.o)
 .glue_7        0x33faff5c        0x0 common/libcommon.a(cmd_flash.o)
 .glue_7        0x33faff5c        0x0 common/libcommon.a(cmd_i2c.o)
 .glue_7        0x33faff5c        0x0 common/libcommon.a(cmd_itest.o)
 .glue_7        0x33faff5c        0x0 common/libcommon.a(cmd_jffs2.o)
 .glue_7        0x33faff5c        0x0 common/libcommon.a(cmd_load.o)
 .glue_7        0x33faff5c        0x0 common/libcommon.a(cmd_mem.o)
 .glue_7        0x33faff5c        0x0 common/libcommon.a(cmd_misc.o)
 .glue_7        0x33faff5c        0x0 common/libcommon.a(cmd_mmc.o)
 .glue_7        0x33faff5c        0x0 common/libcommon.a(cmd_mtdparts.o)
 .glue_7        0x33faff5c        0x0 common/libcommon.a(cmd_nand.o)
 .glue_7        0x33faff5c        0x0 common/libcommon.a(cmd_net.o)
 .glue_7        0x33faff5c        0x0 common/libcommon.a(cmd_nvedit.o)
 .glue_7        0x33faff5c        0x0 common/libcommon.a(cmd_reginfo.o)
 .glue_7        0x33faff5c        0x0 common/libcommon.a(cmd_source.o)
 .glue_7        0x33faff5c        0x0 common/libcommon.a(cmd_usb.o)
 .glue_7        0x33faff5c        0x0 common/libcommon.a(cmd_usbslave.o)
 .glue_7        0x33faff5c        0x0 common/libcommon.a(cmd_ximg.o)
 .glue_7        0x33faff5c        0x0 common/libcommon.a(command.o)
 .glue_7        0x33faff5c        0x0 common/libcommon.a(console.o)
 .glue_7        0x33faff5c        0x0 common/libcommon.a(dlmalloc.o)
 .glue_7        0x33faff5c        0x0 common/libcommon.a(env_common.o)
 .glue_7        0x33faff5c        0x0 common/libcommon.a(env_nand.o)
 .glue_7        0x33faff5c        0x0 common/libcommon.a(exports.o)
 .glue_7        0x33faff5c        0x0 common/libcommon.a(flash.o)
 .glue_7        0x33faff5c        0x0 common/libcommon.a(hush.o)
 .glue_7        0x33faff5c        0x0 common/libcommon.a(image.o)
 .glue_7        0x33faff5c        0x0 common/libcommon.a(main.o)
 .glue_7        0x33faff5c        0x0 common/libcommon.a(s_record.o)
 .glue_7        0x33faff5c        0x0 common/libcommon.a(stdio.o)
 .glue_7        0x33faff5c        0x0 common/libcommon.a(usb.o)
 .glue_7        0x33faff5c        0x0 common/libcommon.a(usb_storage.o)
 .glue_7        0x33faff5c        0x0 common/libcommon.a(xyzModem.o)
 .glue_7        0x33faff5c        0x0 board/tekkamanninja/mini2440/libmini2440.a(mini2440.o)
 .glue_7        0x33faff5c        0x0 board/tekkamanninja/mini2440/libmini2440.a(flash.o)
 .glue_7        0x33faff5c        0x0 lib_generic/libgeneric.a(crc16.o)
 .glue_7        0x33faff5c        0x0 lib_generic/libgeneric.a(crc32.o)
 .glue_7        0x33faff5c        0x0 lib_generic/libgeneric.a(ctype.o)
 .glue_7        0x33faff5c        0x0 lib_generic/libgeneric.a(display_options.o)
 .glue_7        0x33faff5c        0x0 lib_generic/libgeneric.a(gunzip.o)
 .glue_7        0x33faff5c        0x0 lib_generic/libgeneric.a(lmb.o)
 .glue_7        0x33faff5c        0x0 lib_generic/libgeneric.a(string.o)
 .glue_7        0x33faff5c        0x0 lib_generic/libgeneric.a(vsprintf.o)
 .glue_7        0x33faff5c        0x0 lib_generic/libgeneric.a(zlib.o)
 .glue_7        0x33faff5c        0x0 lib_generic/libgeneric.a(div64.o)
 .glue_7        0x33faff5c        0x0 cpu/arm920t/s3c24x0/libs3c24x0.a(interrupts.o)
 .glue_7        0x33faff5c        0x0 cpu/arm920t/s3c24x0/libs3c24x0.a(speed.o)
 .glue_7        0x33faff5c        0x0 cpu/arm920t/s3c24x0/libs3c24x0.a(timer.o)
 .glue_7        0x33faff5c        0x0 cpu/arm920t/s3c24x0/libs3c24x0.a(usb_ohci.o)
 .glue_7        0x33faff5c        0x0 cpu/arm920t/s3c24x0/libs3c24x0.a(mmc.o)
 .glue_7        0x33faff5c        0x0 lib_arm/libarm.a(bootm.o)
 .glue_7        0x33faff5c        0x0 lib_arm/libarm.a(cache.o)
 .glue_7        0x33faff5c        0x0 lib_arm/libarm.a(cache-cp15.o)
 .glue_7        0x33faff5c        0x0 lib_arm/libarm.a(reset.o)
 .glue_7        0x33faff5c        0x0 fs/fat/libfat.a(fat.o)
 .glue_7        0x33faff5c        0x0 fs/jffs2/libjffs2.a(jffs2_1pass.o)
 .glue_7        0x33faff5c        0x0 fs/jffs2/libjffs2.a(compr_rtime.o)
 .glue_7        0x33faff5c        0x0 fs/jffs2/libjffs2.a(compr_rubin.o)
 .glue_7        0x33faff5c        0x0 fs/jffs2/libjffs2.a(compr_zlib.o)
 .glue_7        0x33faff5c        0x0 fs/jffs2/libjffs2.a(mini_inflate.o)
 .glue_7        0x33faff5c        0x0 disk/libdisk.a(part.o)
 .glue_7        0x33faff5c        0x0 disk/libdisk.a(part_dos.o)
 .glue_7        0x33faff5c        0x0 drivers/mtd/libmtd.a(mtdcore.o)
 .glue_7        0x33faff5c        0x0 drivers/mtd/nand/libnand.a(nand_util.o)
 .glue_7        0x33faff5c        0x0 drivers/net/libnet.a(dm9000x.o)
 .glue_7        0x33faff5c        0x0 drivers/rtc/librtc.a(date.o)
 .glue_7        0x33faff5c        0x0 drivers/rtc/librtc.a(s3c24x0_rtc.o)
 .glue_7        0x33faff5c        0x0 drivers/video/libvideo.a(cfb_console.o)
 .glue_7        0x33faff5c        0x0 drivers/video/libvideo.a(s3c2410_fb.o)
 .glue_7        0x33faff5c        0x0 drivers/video/libvideo.a(videomodes.o)
 .glue_7        0x33faff5c        0x0 cpu/arm920t/libarm920t.a(cpu.o)
 .glue_7        0x33faff5c        0x0 /home/bamboo/work/ok2440/u-boot_for_ok2440/lib_arm/eabi_compat.o
 .glue_7        0x33faff5c        0x0 /home/bamboo/work/ok2440/cross_tools/4.3.2/bin/../lib/gcc/arm-none-linux-gnueabi/4.3.2/armv4t/libgcc.a(_udivsi3.o)
 .glue_7        0x33faff5c        0x0 /home/bamboo/work/ok2440/cross_tools/4.3.2/bin/../lib/gcc/arm-none-linux-gnueabi/4.3.2/armv4t/libgcc.a(_divsi3.o)
 .glue_7        0x33faff5c        0x0 /home/bamboo/work/ok2440/cross_tools/4.3.2/bin/../lib/gcc/arm-none-linux-gnueabi/4.3.2/armv4t/libgcc.a(_lshrdi3.o)
 .glue_7        0x33faff5c        0x0 /home/bamboo/work/ok2440/cross_tools/4.3.2/bin/../lib/gcc/arm-none-linux-gnueabi/4.3.2/armv4t/libgcc.a(_ashrdi3.o)
 .glue_7        0x33faff5c        0x0 /home/bamboo/work/ok2440/cross_tools/4.3.2/bin/../lib/gcc/arm-none-linux-gnueabi/4.3.2/armv4t/libgcc.a(_ashldi3.o)
 .glue_7        0x33faff5c        0x0 /home/bamboo/work/ok2440/cross_tools/4.3.2/bin/../lib/gcc/arm-none-linux-gnueabi/4.3.2/armv4t/libgcc.a(_dvmd_lnx.o)

.glue_7t        0x33faff5c        0x0
 .glue_7t       0x33faff5c        0x0 cpu/arm920t/start.o
 .glue_7t       0x33faff5c        0x0 board/tekkamanninja/mini2440/lowlevel_init.o
 .glue_7t       0x33faff5c        0x0 board/tekkamanninja/mini2440/nand_read.o
 .glue_7t       0x33faff5c        0x0 lib_arm/libarm.a(board.o)
 .glue_7t       0x33faff5c        0x0 lib_arm/libarm.a(interrupts.o)
 .glue_7t       0x33faff5c        0x0 net/libnet.a(eth.o)
 .glue_7t       0x33faff5c        0x0 net/libnet.a(net.o)
 .glue_7t       0x33faff5c        0x0 net/libnet.a(nfs.o)
 .glue_7t       0x33faff5c        0x0 net/libnet.a(rarp.o)
 .glue_7t       0x33faff5c        0x0 net/libnet.a(tftp.o)
 .glue_7t       0x33faff5c        0x0 net/libnet.a(bootp.o)
 .glue_7t       0x33faff5c        0x0 drivers/i2c/libi2c.a(s3c24x0_i2c.o)
 .glue_7t       0x33faff5c        0x0 drivers/mtd/nand/libnand.a(nand.o)
 .glue_7t       0x33faff5c        0x0 drivers/mtd/nand/libnand.a(nand_base.o)
 .glue_7t       0x33faff5c        0x0 drivers/mtd/nand/libnand.a(nand_bbt.o)
 .glue_7t       0x33faff5c        0x0 drivers/mtd/nand/libnand.a(nand_ecc.o)
 .glue_7t       0x33faff5c        0x0 drivers/mtd/nand/libnand.a(nand_ids.o)
 .glue_7t       0x33faff5c        0x0 drivers/mtd/nand/libnand.a(s3c2410_nand.o)
 .glue_7t       0x33faff5c        0x0 drivers/serial/libserial.a(serial_s3c24x0.o)
 .glue_7t       0x33faff5c        0x0 drivers/usb/slave/libusb_slave.a(usbinit.o)
 .glue_7t       0x33faff5c        0x0 drivers/usb/slave/libusb_slave.a(interrupt.o)
 .glue_7t       0x33faff5c        0x0 drivers/usb/slave/libusb_slave.a(usblib.o)
 .glue_7t       0x33faff5c        0x0 drivers/usb/slave/libusb_slave.a(usbmain.o)
 .glue_7t       0x33faff5c        0x0 drivers/usb/slave/libusb_slave.a(usbout.o)
 .glue_7t       0x33faff5c        0x0 drivers/usb/slave/libusb_slave.a(usbsetup.o)
 .glue_7t       0x33faff5c        0x0 drivers/usb/slave/libusb_slave.a(usbin.o)
 .glue_7t       0x33faff5c        0x0 common/libcommon.a(cmd_bdinfo.o)
 .glue_7t       0x33faff5c        0x0 common/libcommon.a(cmd_bmp.o)
 .glue_7t       0x33faff5c        0x0 common/libcommon.a(cmd_boot.o)
 .glue_7t       0x33faff5c        0x0 common/libcommon.a(cmd_bootm.o)
 .glue_7t       0x33faff5c        0x0 common/libcommon.a(cmd_cache.o)
 .glue_7t       0x33faff5c        0x0 common/libcommon.a(cmd_console.o)
 .glue_7t       0x33faff5c        0x0 common/libcommon.a(cmd_date.o)
 .glue_7t       0x33faff5c        0x0 common/libcommon.a(cmd_eeprom.o)
 .glue_7t       0x33faff5c        0x0 common/libcommon.a(cmd_elf.o)
 .glue_7t       0x33faff5c        0x0 common/libcommon.a(cmd_fat.o)
 .glue_7t       0x33faff5c        0x0 common/libcommon.a(cmd_flash.o)
 .glue_7t       0x33faff5c        0x0 common/libcommon.a(cmd_i2c.o)
 .glue_7t       0x33faff5c        0x0 common/libcommon.a(cmd_itest.o)
 .glue_7t       0x33faff5c        0x0 common/libcommon.a(cmd_jffs2.o)
 .glue_7t       0x33faff5c        0x0 common/libcommon.a(cmd_load.o)
 .glue_7t       0x33faff5c        0x0 common/libcommon.a(cmd_mem.o)
 .glue_7t       0x33faff5c        0x0 common/libcommon.a(cmd_misc.o)
 .glue_7t       0x33faff5c        0x0 common/libcommon.a(cmd_mmc.o)
 .glue_7t       0x33faff5c        0x0 common/libcommon.a(cmd_mtdparts.o)
 .glue_7t       0x33faff5c        0x0 common/libcommon.a(cmd_nand.o)
 .glue_7t       0x33faff5c        0x0 common/libcommon.a(cmd_net.o)
 .glue_7t       0x33faff5c        0x0 common/libcommon.a(cmd_nvedit.o)
 .glue_7t       0x33faff5c        0x0 common/libcommon.a(cmd_reginfo.o)
 .glue_7t       0x33faff5c        0x0 common/libcommon.a(cmd_source.o)
 .glue_7t       0x33faff5c        0x0 common/libcommon.a(cmd_usb.o)
 .glue_7t       0x33faff5c        0x0 common/libcommon.a(cmd_usbslave.o)
 .glue_7t       0x33faff5c        0x0 common/libcommon.a(cmd_ximg.o)
 .glue_7t       0x33faff5c        0x0 common/libcommon.a(command.o)
 .glue_7t       0x33faff5c        0x0 common/libcommon.a(console.o)
 .glue_7t       0x33faff5c        0x0 common/libcommon.a(dlmalloc.o)
 .glue_7t       0x33faff5c        0x0 common/libcommon.a(env_common.o)
 .glue_7t       0x33faff5c        0x0 common/libcommon.a(env_nand.o)
 .glue_7t       0x33faff5c        0x0 common/libcommon.a(exports.o)
 .glue_7t       0x33faff5c        0x0 common/libcommon.a(flash.o)
 .glue_7t       0x33faff5c        0x0 common/libcommon.a(hush.o)
 .glue_7t       0x33faff5c        0x0 common/libcommon.a(image.o)
 .glue_7t       0x33faff5c        0x0 common/libcommon.a(main.o)
 .glue_7t       0x33faff5c        0x0 common/libcommon.a(s_record.o)
 .glue_7t       0x33faff5c        0x0 common/libcommon.a(stdio.o)
 .glue_7t       0x33faff5c        0x0 common/libcommon.a(usb.o)
 .glue_7t       0x33faff5c        0x0 common/libcommon.a(usb_storage.o)
 .glue_7t       0x33faff5c        0x0 common/libcommon.a(xyzModem.o)
 .glue_7t       0x33faff5c        0x0 board/tekkamanninja/mini2440/libmini2440.a(mini2440.o)
 .glue_7t       0x33faff5c        0x0 board/tekkamanninja/mini2440/libmini2440.a(flash.o)
 .glue_7t       0x33faff5c        0x0 lib_generic/libgeneric.a(crc16.o)
 .glue_7t       0x33faff5c        0x0 lib_generic/libgeneric.a(crc32.o)
 .glue_7t       0x33faff5c        0x0 lib_generic/libgeneric.a(ctype.o)
 .glue_7t       0x33faff5c        0x0 lib_generic/libgeneric.a(display_options.o)
 .glue_7t       0x33faff5c        0x0 lib_generic/libgeneric.a(gunzip.o)
 .glue_7t       0x33faff5c        0x0 lib_generic/libgeneric.a(lmb.o)
 .glue_7t       0x33faff5c        0x0 lib_generic/libgeneric.a(string.o)
 .glue_7t       0x33faff5c        0x0 lib_generic/libgeneric.a(vsprintf.o)
 .glue_7t       0x33faff5c        0x0 lib_generic/libgeneric.a(zlib.o)
 .glue_7t       0x33faff5c        0x0 lib_generic/libgeneric.a(div64.o)
 .glue_7t       0x33faff5c        0x0 cpu/arm920t/s3c24x0/libs3c24x0.a(interrupts.o)
 .glue_7t       0x33faff5c        0x0 cpu/arm920t/s3c24x0/libs3c24x0.a(speed.o)
 .glue_7t       0x33faff5c        0x0 cpu/arm920t/s3c24x0/libs3c24x0.a(timer.o)
 .glue_7t       0x33faff5c        0x0 cpu/arm920t/s3c24x0/libs3c24x0.a(usb_ohci.o)
 .glue_7t       0x33faff5c        0x0 cpu/arm920t/s3c24x0/libs3c24x0.a(mmc.o)
 .glue_7t       0x33faff5c        0x0 lib_arm/libarm.a(bootm.o)
 .glue_7t       0x33faff5c        0x0 lib_arm/libarm.a(cache.o)
 .glue_7t       0x33faff5c        0x0 lib_arm/libarm.a(cache-cp15.o)
 .glue_7t       0x33faff5c        0x0 lib_arm/libarm.a(reset.o)
 .glue_7t       0x33faff5c        0x0 fs/fat/libfat.a(fat.o)
 .glue_7t       0x33faff5c        0x0 fs/jffs2/libjffs2.a(jffs2_1pass.o)
 .glue_7t       0x33faff5c        0x0 fs/jffs2/libjffs2.a(compr_rtime.o)
 .glue_7t       0x33faff5c        0x0 fs/jffs2/libjffs2.a(compr_rubin.o)
 .glue_7t       0x33faff5c        0x0 fs/jffs2/libjffs2.a(compr_zlib.o)
 .glue_7t       0x33faff5c        0x0 fs/jffs2/libjffs2.a(mini_inflate.o)
 .glue_7t       0x33faff5c        0x0 disk/libdisk.a(part.o)
 .glue_7t       0x33faff5c        0x0 disk/libdisk.a(part_dos.o)
 .glue_7t       0x33faff5c        0x0 drivers/mtd/libmtd.a(mtdcore.o)
 .glue_7t       0x33faff5c        0x0 drivers/mtd/nand/libnand.a(nand_util.o)
 .glue_7t       0x33faff5c        0x0 drivers/net/libnet.a(dm9000x.o)
 .glue_7t       0x33faff5c        0x0 drivers/rtc/librtc.a(date.o)
 .glue_7t       0x33faff5c        0x0 drivers/rtc/librtc.a(s3c24x0_rtc.o)
 .glue_7t       0x33faff5c        0x0 drivers/video/libvideo.a(cfb_console.o)
 .glue_7t       0x33faff5c        0x0 drivers/video/libvideo.a(s3c2410_fb.o)
 .glue_7t       0x33faff5c        0x0 drivers/video/libvideo.a(videomodes.o)
 .glue_7t       0x33faff5c        0x0 cpu/arm920t/libarm920t.a(cpu.o)
 .glue_7t       0x33faff5c        0x0 /home/bamboo/work/ok2440/u-boot_for_ok2440/lib_arm/eabi_compat.o
 .glue_7t       0x33faff5c        0x0 /home/bamboo/work/ok2440/cross_tools/4.3.2/bin/../lib/gcc/arm-none-linux-gnueabi/4.3.2/armv4t/libgcc.a(_udivsi3.o)
 .glue_7t       0x33faff5c        0x0 /home/bamboo/work/ok2440/cross_tools/4.3.2/bin/../lib/gcc/arm-none-linux-gnueabi/4.3.2/armv4t/libgcc.a(_divsi3.o)
 .glue_7t       0x33faff5c        0x0 /home/bamboo/work/ok2440/cross_tools/4.3.2/bin/../lib/gcc/arm-none-linux-gnueabi/4.3.2/armv4t/libgcc.a(_lshrdi3.o)
 .glue_7t       0x33faff5c        0x0 /home/bamboo/work/ok2440/cross_tools/4.3.2/bin/../lib/gcc/arm-none-linux-gnueabi/4.3.2/armv4t/libgcc.a(_ashrdi3.o)
 .glue_7t       0x33faff5c        0x0 /home/bamboo/work/ok2440/cross_tools/4.3.2/bin/../lib/gcc/arm-none-linux-gnueabi/4.3.2/armv4t/libgcc.a(_ashldi3.o)
 .glue_7t       0x33faff5c        0x0 /home/bamboo/work/ok2440/cross_tools/4.3.2/bin/../lib/gcc/arm-none-linux-gnueabi/4.3.2/armv4t/libgcc.a(_dvmd_lnx.o)

.vfp11_veneer   0x33faff5c        0x0
 .vfp11_veneer  0x33faff5c        0x0 cpu/arm920t/start.o
 .vfp11_veneer  0x33faff5c        0x0 board/tekkamanninja/mini2440/lowlevel_init.o
 .vfp11_veneer  0x33faff5c        0x0 board/tekkamanninja/mini2440/nand_read.o
 .vfp11_veneer  0x33faff5c        0x0 lib_arm/libarm.a(board.o)
 .vfp11_veneer  0x33faff5c        0x0 lib_arm/libarm.a(interrupts.o)
 .vfp11_veneer  0x33faff5c        0x0 net/libnet.a(eth.o)
 .vfp11_veneer  0x33faff5c        0x0 net/libnet.a(net.o)
 .vfp11_veneer  0x33faff5c        0x0 net/libnet.a(nfs.o)
 .vfp11_veneer  0x33faff5c        0x0 net/libnet.a(rarp.o)
 .vfp11_veneer  0x33faff5c        0x0 net/libnet.a(tftp.o)
 .vfp11_veneer  0x33faff5c        0x0 net/libnet.a(bootp.o)
 .vfp11_veneer  0x33faff5c        0x0 drivers/i2c/libi2c.a(s3c24x0_i2c.o)
 .vfp11_veneer  0x33faff5c        0x0 drivers/mtd/nand/libnand.a(nand.o)
 .vfp11_veneer  0x33faff5c        0x0 drivers/mtd/nand/libnand.a(nand_base.o)
 .vfp11_veneer  0x33faff5c        0x0 drivers/mtd/nand/libnand.a(nand_bbt.o)
 .vfp11_veneer  0x33faff5c        0x0 drivers/mtd/nand/libnand.a(nand_ecc.o)
 .vfp11_veneer  0x33faff5c        0x0 drivers/mtd/nand/libnand.a(nand_ids.o)
 .vfp11_veneer  0x33faff5c        0x0 drivers/mtd/nand/libnand.a(s3c2410_nand.o)
 .vfp11_veneer  0x33faff5c        0x0 drivers/serial/libserial.a(serial_s3c24x0.o)
 .vfp11_veneer  0x33faff5c        0x0 drivers/usb/slave/libusb_slave.a(usbinit.o)
 .vfp11_veneer  0x33faff5c        0x0 drivers/usb/slave/libusb_slave.a(interrupt.o)
 .vfp11_veneer  0x33faff5c        0x0 drivers/usb/slave/libusb_slave.a(usblib.o)
 .vfp11_veneer  0x33faff5c        0x0 drivers/usb/slave/libusb_slave.a(usbmain.o)
 .vfp11_veneer  0x33faff5c        0x0 drivers/usb/slave/libusb_slave.a(usbout.o)
 .vfp11_veneer  0x33faff5c        0x0 drivers/usb/slave/libusb_slave.a(usbsetup.o)
 .vfp11_veneer  0x33faff5c        0x0 drivers/usb/slave/libusb_slave.a(usbin.o)
 .vfp11_veneer  0x33faff5c        0x0 common/libcommon.a(cmd_bdinfo.o)
 .vfp11_veneer  0x33faff5c        0x0 common/libcommon.a(cmd_bmp.o)
 .vfp11_veneer  0x33faff5c        0x0 common/libcommon.a(cmd_boot.o)
 .vfp11_veneer  0x33faff5c        0x0 common/libcommon.a(cmd_bootm.o)
 .vfp11_veneer  0x33faff5c        0x0 common/libcommon.a(cmd_cache.o)
 .vfp11_veneer  0x33faff5c        0x0 common/libcommon.a(cmd_console.o)
 .vfp11_veneer  0x33faff5c        0x0 common/libcommon.a(cmd_date.o)
 .vfp11_veneer  0x33faff5c        0x0 common/libcommon.a(cmd_eeprom.o)
 .vfp11_veneer  0x33faff5c        0x0 common/libcommon.a(cmd_elf.o)
 .vfp11_veneer  0x33faff5c        0x0 common/libcommon.a(cmd_fat.o)
 .vfp11_veneer  0x33faff5c        0x0 common/libcommon.a(cmd_flash.o)
 .vfp11_veneer  0x33faff5c        0x0 common/libcommon.a(cmd_i2c.o)
 .vfp11_veneer  0x33faff5c        0x0 common/libcommon.a(cmd_itest.o)
 .vfp11_veneer  0x33faff5c        0x0 common/libcommon.a(cmd_jffs2.o)
 .vfp11_veneer  0x33faff5c        0x0 common/libcommon.a(cmd_load.o)
 .vfp11_veneer  0x33faff5c        0x0 common/libcommon.a(cmd_mem.o)
 .vfp11_veneer  0x33faff5c        0x0 common/libcommon.a(cmd_misc.o)
 .vfp11_veneer  0x33faff5c        0x0 common/libcommon.a(cmd_mmc.o)
 .vfp11_veneer  0x33faff5c        0x0 common/libcommon.a(cmd_mtdparts.o)
 .vfp11_veneer  0x33faff5c        0x0 common/libcommon.a(cmd_nand.o)
 .vfp11_veneer  0x33faff5c        0x0 common/libcommon.a(cmd_net.o)
 .vfp11_veneer  0x33faff5c        0x0 common/libcommon.a(cmd_nvedit.o)
 .vfp11_veneer  0x33faff5c        0x0 common/libcommon.a(cmd_reginfo.o)
 .vfp11_veneer  0x33faff5c        0x0 common/libcommon.a(cmd_source.o)
 .vfp11_veneer  0x33faff5c        0x0 common/libcommon.a(cmd_usb.o)
 .vfp11_veneer  0x33faff5c        0x0 common/libcommon.a(cmd_usbslave.o)
 .vfp11_veneer  0x33faff5c        0x0 common/libcommon.a(cmd_ximg.o)
 .vfp11_veneer  0x33faff5c        0x0 common/libcommon.a(command.o)
 .vfp11_veneer  0x33faff5c        0x0 common/libcommon.a(console.o)
 .vfp11_veneer  0x33faff5c        0x0 common/libcommon.a(dlmalloc.o)
 .vfp11_veneer  0x33faff5c        0x0 common/libcommon.a(env_common.o)
 .vfp11_veneer  0x33faff5c        0x0 common/libcommon.a(env_nand.o)
 .vfp11_veneer  0x33faff5c        0x0 common/libcommon.a(exports.o)
 .vfp11_veneer  0x33faff5c        0x0 common/libcommon.a(flash.o)
 .vfp11_veneer  0x33faff5c        0x0 common/libcommon.a(hush.o)
 .vfp11_veneer  0x33faff5c        0x0 common/libcommon.a(image.o)
 .vfp11_veneer  0x33faff5c        0x0 common/libcommon.a(main.o)
 .vfp11_veneer  0x33faff5c        0x0 common/libcommon.a(s_record.o)
 .vfp11_veneer  0x33faff5c        0x0 common/libcommon.a(stdio.o)
 .vfp11_veneer  0x33faff5c        0x0 common/libcommon.a(usb.o)
 .vfp11_veneer  0x33faff5c        0x0 common/libcommon.a(usb_storage.o)
 .vfp11_veneer  0x33faff5c        0x0 common/libcommon.a(xyzModem.o)
 .vfp11_veneer  0x33faff5c        0x0 board/tekkamanninja/mini2440/libmini2440.a(mini2440.o)
 .vfp11_veneer  0x33faff5c        0x0 board/tekkamanninja/mini2440/libmini2440.a(flash.o)
 .vfp11_veneer  0x33faff5c        0x0 lib_generic/libgeneric.a(crc16.o)
 .vfp11_veneer  0x33faff5c        0x0 lib_generic/libgeneric.a(crc32.o)
 .vfp11_veneer  0x33faff5c        0x0 lib_generic/libgeneric.a(ctype.o)
 .vfp11_veneer  0x33faff5c        0x0 lib_generic/libgeneric.a(display_options.o)
 .vfp11_veneer  0x33faff5c        0x0 lib_generic/libgeneric.a(gunzip.o)
 .vfp11_veneer  0x33faff5c        0x0 lib_generic/libgeneric.a(lmb.o)
 .vfp11_veneer  0x33faff5c        0x0 lib_generic/libgeneric.a(string.o)
 .vfp11_veneer  0x33faff5c        0x0 lib_generic/libgeneric.a(vsprintf.o)
 .vfp11_veneer  0x33faff5c        0x0 lib_generic/libgeneric.a(zlib.o)
 .vfp11_veneer  0x33faff5c        0x0 lib_generic/libgeneric.a(div64.o)
 .vfp11_veneer  0x33faff5c        0x0 cpu/arm920t/s3c24x0/libs3c24x0.a(interrupts.o)
 .vfp11_veneer  0x33faff5c        0x0 cpu/arm920t/s3c24x0/libs3c24x0.a(speed.o)
 .vfp11_veneer  0x33faff5c        0x0 cpu/arm920t/s3c24x0/libs3c24x0.a(timer.o)
 .vfp11_veneer  0x33faff5c        0x0 cpu/arm920t/s3c24x0/libs3c24x0.a(usb_ohci.o)
 .vfp11_veneer  0x33faff5c        0x0 cpu/arm920t/s3c24x0/libs3c24x0.a(mmc.o)
 .vfp11_veneer  0x33faff5c        0x0 lib_arm/libarm.a(bootm.o)
 .vfp11_veneer  0x33faff5c        0x0 lib_arm/libarm.a(cache.o)
 .vfp11_veneer  0x33faff5c        0x0 lib_arm/libarm.a(cache-cp15.o)
 .vfp11_veneer  0x33faff5c        0x0 lib_arm/libarm.a(reset.o)
 .vfp11_veneer  0x33faff5c        0x0 fs/fat/libfat.a(fat.o)
 .vfp11_veneer  0x33faff5c        0x0 fs/jffs2/libjffs2.a(jffs2_1pass.o)
 .vfp11_veneer  0x33faff5c        0x0 fs/jffs2/libjffs2.a(compr_rtime.o)
 .vfp11_veneer  0x33faff5c        0x0 fs/jffs2/libjffs2.a(compr_rubin.o)
 .vfp11_veneer  0x33faff5c        0x0 fs/jffs2/libjffs2.a(compr_zlib.o)
 .vfp11_veneer  0x33faff5c        0x0 fs/jffs2/libjffs2.a(mini_inflate.o)
 .vfp11_veneer  0x33faff5c        0x0 disk/libdisk.a(part.o)
 .vfp11_veneer  0x33faff5c        0x0 disk/libdisk.a(part_dos.o)
 .vfp11_veneer  0x33faff5c        0x0 drivers/mtd/libmtd.a(mtdcore.o)
 .vfp11_veneer  0x33faff5c        0x0 drivers/mtd/nand/libnand.a(nand_util.o)
 .vfp11_veneer  0x33faff5c        0x0 drivers/net/libnet.a(dm9000x.o)
 .vfp11_veneer  0x33faff5c        0x0 drivers/rtc/librtc.a(date.o)
 .vfp11_veneer  0x33faff5c        0x0 drivers/rtc/librtc.a(s3c24x0_rtc.o)
 .vfp11_veneer  0x33faff5c        0x0 drivers/video/libvideo.a(cfb_console.o)
 .vfp11_veneer  0x33faff5c        0x0 drivers/video/libvideo.a(s3c2410_fb.o)
 .vfp11_veneer  0x33faff5c        0x0 drivers/video/libvideo.a(videomodes.o)
 .vfp11_veneer  0x33faff5c        0x0 cpu/arm920t/libarm920t.a(cpu.o)
 .vfp11_veneer  0x33faff5c        0x0 /home/bamboo/work/ok2440/u-boot_for_ok2440/lib_arm/eabi_compat.o
 .vfp11_veneer  0x33faff5c        0x0 /home/bamboo/work/ok2440/cross_tools/4.3.2/bin/../lib/gcc/arm-none-linux-gnueabi/4.3.2/armv4t/libgcc.a(_udivsi3.o)
 .vfp11_veneer  0x33faff5c        0x0 /home/bamboo/work/ok2440/cross_tools/4.3.2/bin/../lib/gcc/arm-none-linux-gnueabi/4.3.2/armv4t/libgcc.a(_divsi3.o)
 .vfp11_veneer  0x33faff5c        0x0 /home/bamboo/work/ok2440/cross_tools/4.3.2/bin/../lib/gcc/arm-none-linux-gnueabi/4.3.2/armv4t/libgcc.a(_lshrdi3.o)
 .vfp11_veneer  0x33faff5c        0x0 /home/bamboo/work/ok2440/cross_tools/4.3.2/bin/../lib/gcc/arm-none-linux-gnueabi/4.3.2/armv4t/libgcc.a(_ashrdi3.o)
 .vfp11_veneer  0x33faff5c        0x0 /home/bamboo/work/ok2440/cross_tools/4.3.2/bin/../lib/gcc/arm-none-linux-gnueabi/4.3.2/armv4t/libgcc.a(_ashldi3.o)
 .vfp11_veneer  0x33faff5c        0x0 /home/bamboo/work/ok2440/cross_tools/4.3.2/bin/../lib/gcc/arm-none-linux-gnueabi/4.3.2/armv4t/libgcc.a(_dvmd_lnx.o)

.janus_2cc_veneer
                0x33faff5c        0x0
 .janus_2cc_veneer
                0x33faff5c        0x0 cpu/arm920t/start.o
 .janus_2cc_veneer
                0x33faff5c        0x0 board/tekkamanninja/mini2440/lowlevel_init.o
 .janus_2cc_veneer
                0x33faff5c        0x0 board/tekkamanninja/mini2440/nand_read.o
 .janus_2cc_veneer
                0x33faff5c        0x0 lib_arm/libarm.a(board.o)
 .janus_2cc_veneer
                0x33faff5c        0x0 lib_arm/libarm.a(interrupts.o)
 .janus_2cc_veneer
                0x33faff5c        0x0 net/libnet.a(eth.o)
 .janus_2cc_veneer
                0x33faff5c        0x0 net/libnet.a(net.o)
 .janus_2cc_veneer
                0x33faff5c        0x0 net/libnet.a(nfs.o)
 .janus_2cc_veneer
                0x33faff5c        0x0 net/libnet.a(rarp.o)
 .janus_2cc_veneer
                0x33faff5c        0x0 net/libnet.a(tftp.o)
 .janus_2cc_veneer
                0x33faff5c        0x0 net/libnet.a(bootp.o)
 .janus_2cc_veneer
                0x33faff5c        0x0 drivers/i2c/libi2c.a(s3c24x0_i2c.o)
 .janus_2cc_veneer
                0x33faff5c        0x0 drivers/mtd/nand/libnand.a(nand.o)
 .janus_2cc_veneer
                0x33faff5c        0x0 drivers/mtd/nand/libnand.a(nand_base.o)
 .janus_2cc_veneer
                0x33faff5c        0x0 drivers/mtd/nand/libnand.a(nand_bbt.o)
 .janus_2cc_veneer
                0x33faff5c        0x0 drivers/mtd/nand/libnand.a(nand_ecc.o)
 .janus_2cc_veneer
                0x33faff5c        0x0 drivers/mtd/nand/libnand.a(nand_ids.o)
 .janus_2cc_veneer
                0x33faff5c        0x0 drivers/mtd/nand/libnand.a(s3c2410_nand.o)
 .janus_2cc_veneer
                0x33faff5c        0x0 drivers/serial/libserial.a(serial_s3c24x0.o)
 .janus_2cc_veneer
                0x33faff5c        0x0 drivers/usb/slave/libusb_slave.a(usbinit.o)
 .janus_2cc_veneer
                0x33faff5c        0x0 drivers/usb/slave/libusb_slave.a(interrupt.o)
 .janus_2cc_veneer
                0x33faff5c        0x0 drivers/usb/slave/libusb_slave.a(usblib.o)
 .janus_2cc_veneer
                0x33faff5c        0x0 drivers/usb/slave/libusb_slave.a(usbmain.o)
 .janus_2cc_veneer
                0x33faff5c        0x0 drivers/usb/slave/libusb_slave.a(usbout.o)
 .janus_2cc_veneer
                0x33faff5c        0x0 drivers/usb/slave/libusb_slave.a(usbsetup.o)
 .janus_2cc_veneer
                0x33faff5c        0x0 drivers/usb/slave/libusb_slave.a(usbin.o)
 .janus_2cc_veneer
                0x33faff5c        0x0 common/libcommon.a(cmd_bdinfo.o)
 .janus_2cc_veneer
                0x33faff5c        0x0 common/libcommon.a(cmd_bmp.o)
 .janus_2cc_veneer
                0x33faff5c        0x0 common/libcommon.a(cmd_boot.o)
 .janus_2cc_veneer
                0x33faff5c        0x0 common/libcommon.a(cmd_bootm.o)
 .janus_2cc_veneer
                0x33faff5c        0x0 common/libcommon.a(cmd_cache.o)
 .janus_2cc_veneer
                0x33faff5c        0x0 common/libcommon.a(cmd_console.o)
 .janus_2cc_veneer
                0x33faff5c        0x0 common/libcommon.a(cmd_date.o)
 .janus_2cc_veneer
                0x33faff5c        0x0 common/libcommon.a(cmd_eeprom.o)
 .janus_2cc_veneer
                0x33faff5c        0x0 common/libcommon.a(cmd_elf.o)
 .janus_2cc_veneer
                0x33faff5c        0x0 common/libcommon.a(cmd_fat.o)
 .janus_2cc_veneer
                0x33faff5c        0x0 common/libcommon.a(cmd_flash.o)
 .janus_2cc_veneer
                0x33faff5c        0x0 common/libcommon.a(cmd_i2c.o)
 .janus_2cc_veneer
                0x33faff5c        0x0 common/libcommon.a(cmd_itest.o)
 .janus_2cc_veneer
                0x33faff5c        0x0 common/libcommon.a(cmd_jffs2.o)
 .janus_2cc_veneer
                0x33faff5c        0x0 common/libcommon.a(cmd_load.o)
 .janus_2cc_veneer
                0x33faff5c        0x0 common/libcommon.a(cmd_mem.o)
 .janus_2cc_veneer
                0x33faff5c        0x0 common/libcommon.a(cmd_misc.o)
 .janus_2cc_veneer
                0x33faff5c        0x0 common/libcommon.a(cmd_mmc.o)
 .janus_2cc_veneer
                0x33faff5c        0x0 common/libcommon.a(cmd_mtdparts.o)
 .janus_2cc_veneer
                0x33faff5c        0x0 common/libcommon.a(cmd_nand.o)
 .janus_2cc_veneer
                0x33faff5c        0x0 common/libcommon.a(cmd_net.o)
 .janus_2cc_veneer
                0x33faff5c        0x0 common/libcommon.a(cmd_nvedit.o)
 .janus_2cc_veneer
                0x33faff5c        0x0 common/libcommon.a(cmd_reginfo.o)
 .janus_2cc_veneer
                0x33faff5c        0x0 common/libcommon.a(cmd_source.o)
 .janus_2cc_veneer
                0x33faff5c        0x0 common/libcommon.a(cmd_usb.o)
 .janus_2cc_veneer
                0x33faff5c        0x0 common/libcommon.a(cmd_usbslave.o)
 .janus_2cc_veneer
                0x33faff5c        0x0 common/libcommon.a(cmd_ximg.o)
 .janus_2cc_veneer
                0x33faff5c        0x0 common/libcommon.a(command.o)
 .janus_2cc_veneer
                0x33faff5c        0x0 common/libcommon.a(console.o)
 .janus_2cc_veneer
                0x33faff5c        0x0 common/libcommon.a(dlmalloc.o)
 .janus_2cc_veneer
                0x33faff5c        0x0 common/libcommon.a(env_common.o)
 .janus_2cc_veneer
                0x33faff5c        0x0 common/libcommon.a(env_nand.o)
 .janus_2cc_veneer
                0x33faff5c        0x0 common/libcommon.a(exports.o)
 .janus_2cc_veneer
                0x33faff5c        0x0 common/libcommon.a(flash.o)
 .janus_2cc_veneer
                0x33faff5c        0x0 common/libcommon.a(hush.o)
 .janus_2cc_veneer
                0x33faff5c        0x0 common/libcommon.a(image.o)
 .janus_2cc_veneer
                0x33faff5c        0x0 common/libcommon.a(main.o)
 .janus_2cc_veneer
                0x33faff5c        0x0 common/libcommon.a(s_record.o)
 .janus_2cc_veneer
                0x33faff5c        0x0 common/libcommon.a(stdio.o)
 .janus_2cc_veneer
                0x33faff5c        0x0 common/libcommon.a(usb.o)
 .janus_2cc_veneer
                0x33faff5c        0x0 common/libcommon.a(usb_storage.o)
 .janus_2cc_veneer
                0x33faff5c        0x0 common/libcommon.a(xyzModem.o)
 .janus_2cc_veneer
                0x33faff5c        0x0 board/tekkamanninja/mini2440/libmini2440.a(mini2440.o)
 .janus_2cc_veneer
                0x33faff5c        0x0 board/tekkamanninja/mini2440/libmini2440.a(flash.o)
 .janus_2cc_veneer
                0x33faff5c        0x0 lib_generic/libgeneric.a(crc16.o)
 .janus_2cc_veneer
                0x33faff5c        0x0 lib_generic/libgeneric.a(crc32.o)
 .janus_2cc_veneer
                0x33faff5c        0x0 lib_generic/libgeneric.a(ctype.o)
 .janus_2cc_veneer
                0x33faff5c        0x0 lib_generic/libgeneric.a(display_options.o)
 .janus_2cc_veneer
                0x33faff5c        0x0 lib_generic/libgeneric.a(gunzip.o)
 .janus_2cc_veneer
                0x33faff5c        0x0 lib_generic/libgeneric.a(lmb.o)
 .janus_2cc_veneer
                0x33faff5c        0x0 lib_generic/libgeneric.a(string.o)
 .janus_2cc_veneer
                0x33faff5c        0x0 lib_generic/libgeneric.a(vsprintf.o)
 .janus_2cc_veneer
                0x33faff5c        0x0 lib_generic/libgeneric.a(zlib.o)
 .janus_2cc_veneer
                0x33faff5c        0x0 lib_generic/libgeneric.a(div64.o)
 .janus_2cc_veneer
                0x33faff5c        0x0 cpu/arm920t/s3c24x0/libs3c24x0.a(interrupts.o)
 .janus_2cc_veneer
                0x33faff5c        0x0 cpu/arm920t/s3c24x0/libs3c24x0.a(speed.o)
 .janus_2cc_veneer
                0x33faff5c        0x0 cpu/arm920t/s3c24x0/libs3c24x0.a(timer.o)
 .janus_2cc_veneer
                0x33faff5c        0x0 cpu/arm920t/s3c24x0/libs3c24x0.a(usb_ohci.o)
 .janus_2cc_veneer
                0x33faff5c        0x0 cpu/arm920t/s3c24x0/libs3c24x0.a(mmc.o)
 .janus_2cc_veneer
                0x33faff5c        0x0 lib_arm/libarm.a(bootm.o)
 .janus_2cc_veneer
                0x33faff5c        0x0 lib_arm/libarm.a(cache.o)
 .janus_2cc_veneer
                0x33faff5c        0x0 lib_arm/libarm.a(cache-cp15.o)
 .janus_2cc_veneer
                0x33faff5c        0x0 lib_arm/libarm.a(reset.o)
 .janus_2cc_veneer
                0x33faff5c        0x0 fs/fat/libfat.a(fat.o)
 .janus_2cc_veneer
                0x33faff5c        0x0 fs/jffs2/libjffs2.a(jffs2_1pass.o)
 .janus_2cc_veneer
                0x33faff5c        0x0 fs/jffs2/libjffs2.a(compr_rtime.o)
 .janus_2cc_veneer
                0x33faff5c        0x0 fs/jffs2/libjffs2.a(compr_rubin.o)
 .janus_2cc_veneer
                0x33faff5c        0x0 fs/jffs2/libjffs2.a(compr_zlib.o)
 .janus_2cc_veneer
                0x33faff5c        0x0 fs/jffs2/libjffs2.a(mini_inflate.o)
 .janus_2cc_veneer
                0x33faff5c        0x0 disk/libdisk.a(part.o)
 .janus_2cc_veneer
                0x33faff5c        0x0 disk/libdisk.a(part_dos.o)
 .janus_2cc_veneer
                0x33faff5c        0x0 drivers/mtd/libmtd.a(mtdcore.o)
 .janus_2cc_veneer
                0x33faff5c        0x0 drivers/mtd/nand/libnand.a(nand_util.o)
 .janus_2cc_veneer
                0x33faff5c        0x0 drivers/net/libnet.a(dm9000x.o)
 .janus_2cc_veneer
                0x33faff5c        0x0 drivers/rtc/librtc.a(date.o)
 .janus_2cc_veneer
                0x33faff5c        0x0 drivers/rtc/librtc.a(s3c24x0_rtc.o)
 .janus_2cc_veneer
                0x33faff5c        0x0 drivers/video/libvideo.a(cfb_console.o)
 .janus_2cc_veneer
                0x33faff5c        0x0 drivers/video/libvideo.a(s3c2410_fb.o)
 .janus_2cc_veneer
                0x33faff5c        0x0 drivers/video/libvideo.a(videomodes.o)
 .janus_2cc_veneer
                0x33faff5c        0x0 cpu/arm920t/libarm920t.a(cpu.o)
 .janus_2cc_veneer
                0x33faff5c        0x0 /home/bamboo/work/ok2440/u-boot_for_ok2440/lib_arm/eabi_compat.o
 .janus_2cc_veneer
                0x33faff5c        0x0 /home/bamboo/work/ok2440/cross_tools/4.3.2/bin/../lib/gcc/arm-none-linux-gnueabi/4.3.2/armv4t/libgcc.a(_udivsi3.o)
 .janus_2cc_veneer
                0x33faff5c        0x0 /home/bamboo/work/ok2440/cross_tools/4.3.2/bin/../lib/gcc/arm-none-linux-gnueabi/4.3.2/armv4t/libgcc.a(_divsi3.o)
 .janus_2cc_veneer
                0x33faff5c        0x0 /home/bamboo/work/ok2440/cross_tools/4.3.2/bin/../lib/gcc/arm-none-linux-gnueabi/4.3.2/armv4t/libgcc.a(_lshrdi3.o)
 .janus_2cc_veneer
                0x33faff5c        0x0 /home/bamboo/work/ok2440/cross_tools/4.3.2/bin/../lib/gcc/arm-none-linux-gnueabi/4.3.2/armv4t/libgcc.a(_ashrdi3.o)
 .janus_2cc_veneer
                0x33faff5c        0x0 /home/bamboo/work/ok2440/cross_tools/4.3.2/bin/../lib/gcc/arm-none-linux-gnueabi/4.3.2/armv4t/libgcc.a(_ashldi3.o)
 .janus_2cc_veneer
                0x33faff5c        0x0 /home/bamboo/work/ok2440/cross_tools/4.3.2/bin/../lib/gcc/arm-none-linux-gnueabi/4.3.2/armv4t/libgcc.a(_dvmd_lnx.o)

.v4_bx          0x33faff5c        0x0
 .v4_bx         0x33faff5c        0x0 cpu/arm920t/start.o
 .v4_bx         0x33faff5c        0x0 board/tekkamanninja/mini2440/lowlevel_init.o
 .v4_bx         0x33faff5c        0x0 board/tekkamanninja/mini2440/nand_read.o
 .v4_bx         0x33faff5c        0x0 lib_arm/libarm.a(board.o)
 .v4_bx         0x33faff5c        0x0 lib_arm/libarm.a(interrupts.o)
 .v4_bx         0x33faff5c        0x0 net/libnet.a(eth.o)
 .v4_bx         0x33faff5c        0x0 net/libnet.a(net.o)
 .v4_bx         0x33faff5c        0x0 net/libnet.a(nfs.o)
 .v4_bx         0x33faff5c        0x0 net/libnet.a(rarp.o)
 .v4_bx         0x33faff5c        0x0 net/libnet.a(tftp.o)
 .v4_bx         0x33faff5c        0x0 net/libnet.a(bootp.o)
 .v4_bx         0x33faff5c        0x0 drivers/i2c/libi2c.a(s3c24x0_i2c.o)
 .v4_bx         0x33faff5c        0x0 drivers/mtd/nand/libnand.a(nand.o)
 .v4_bx         0x33faff5c        0x0 drivers/mtd/nand/libnand.a(nand_base.o)
 .v4_bx         0x33faff5c        0x0 drivers/mtd/nand/libnand.a(nand_bbt.o)
 .v4_bx         0x33faff5c        0x0 drivers/mtd/nand/libnand.a(nand_ecc.o)
 .v4_bx         0x33faff5c        0x0 drivers/mtd/nand/libnand.a(nand_ids.o)
 .v4_bx         0x33faff5c        0x0 drivers/mtd/nand/libnand.a(s3c2410_nand.o)
 .v4_bx         0x33faff5c        0x0 drivers/serial/libserial.a(serial_s3c24x0.o)
 .v4_bx         0x33faff5c        0x0 drivers/usb/slave/libusb_slave.a(usbinit.o)
 .v4_bx         0x33faff5c        0x0 drivers/usb/slave/libusb_slave.a(interrupt.o)
 .v4_bx         0x33faff5c        0x0 drivers/usb/slave/libusb_slave.a(usblib.o)
 .v4_bx         0x33faff5c        0x0 drivers/usb/slave/libusb_slave.a(usbmain.o)
 .v4_bx         0x33faff5c        0x0 drivers/usb/slave/libusb_slave.a(usbout.o)
 .v4_bx         0x33faff5c        0x0 drivers/usb/slave/libusb_slave.a(usbsetup.o)
 .v4_bx         0x33faff5c        0x0 drivers/usb/slave/libusb_slave.a(usbin.o)
 .v4_bx         0x33faff5c        0x0 common/libcommon.a(cmd_bdinfo.o)
 .v4_bx         0x33faff5c        0x0 common/libcommon.a(cmd_bmp.o)
 .v4_bx         0x33faff5c        0x0 common/libcommon.a(cmd_boot.o)
 .v4_bx         0x33faff5c        0x0 common/libcommon.a(cmd_bootm.o)
 .v4_bx         0x33faff5c        0x0 common/libcommon.a(cmd_cache.o)
 .v4_bx         0x33faff5c        0x0 common/libcommon.a(cmd_console.o)
 .v4_bx         0x33faff5c        0x0 common/libcommon.a(cmd_date.o)
 .v4_bx         0x33faff5c        0x0 common/libcommon.a(cmd_eeprom.o)
 .v4_bx         0x33faff5c        0x0 common/libcommon.a(cmd_elf.o)
 .v4_bx         0x33faff5c        0x0 common/libcommon.a(cmd_fat.o)
 .v4_bx         0x33faff5c        0x0 common/libcommon.a(cmd_flash.o)
 .v4_bx         0x33faff5c        0x0 common/libcommon.a(cmd_i2c.o)
 .v4_bx         0x33faff5c        0x0 common/libcommon.a(cmd_itest.o)
 .v4_bx         0x33faff5c        0x0 common/libcommon.a(cmd_jffs2.o)
 .v4_bx         0x33faff5c        0x0 common/libcommon.a(cmd_load.o)
 .v4_bx         0x33faff5c        0x0 common/libcommon.a(cmd_mem.o)
 .v4_bx         0x33faff5c        0x0 common/libcommon.a(cmd_misc.o)
 .v4_bx         0x33faff5c        0x0 common/libcommon.a(cmd_mmc.o)
 .v4_bx         0x33faff5c        0x0 common/libcommon.a(cmd_mtdparts.o)
 .v4_bx         0x33faff5c        0x0 common/libcommon.a(cmd_nand.o)
 .v4_bx         0x33faff5c        0x0 common/libcommon.a(cmd_net.o)
 .v4_bx         0x33faff5c        0x0 common/libcommon.a(cmd_nvedit.o)
 .v4_bx         0x33faff5c        0x0 common/libcommon.a(cmd_reginfo.o)
 .v4_bx         0x33faff5c        0x0 common/libcommon.a(cmd_source.o)
 .v4_bx         0x33faff5c        0x0 common/libcommon.a(cmd_usb.o)
 .v4_bx         0x33faff5c        0x0 common/libcommon.a(cmd_usbslave.o)
 .v4_bx         0x33faff5c        0x0 common/libcommon.a(cmd_ximg.o)
 .v4_bx         0x33faff5c        0x0 common/libcommon.a(command.o)
 .v4_bx         0x33faff5c        0x0 common/libcommon.a(console.o)
 .v4_bx         0x33faff5c        0x0 common/libcommon.a(dlmalloc.o)
 .v4_bx         0x33faff5c        0x0 common/libcommon.a(env_common.o)
 .v4_bx         0x33faff5c        0x0 common/libcommon.a(env_nand.o)
 .v4_bx         0x33faff5c        0x0 common/libcommon.a(exports.o)
 .v4_bx         0x33faff5c        0x0 common/libcommon.a(flash.o)
 .v4_bx         0x33faff5c        0x0 common/libcommon.a(hush.o)
 .v4_bx         0x33faff5c        0x0 common/libcommon.a(image.o)
 .v4_bx         0x33faff5c        0x0 common/libcommon.a(main.o)
 .v4_bx         0x33faff5c        0x0 common/libcommon.a(s_record.o)
 .v4_bx         0x33faff5c        0x0 common/libcommon.a(stdio.o)
 .v4_bx         0x33faff5c        0x0 common/libcommon.a(usb.o)
 .v4_bx         0x33faff5c        0x0 common/libcommon.a(usb_storage.o)
 .v4_bx         0x33faff5c        0x0 common/libcommon.a(xyzModem.o)
 .v4_bx         0x33faff5c        0x0 board/tekkamanninja/mini2440/libmini2440.a(mini2440.o)
 .v4_bx         0x33faff5c        0x0 board/tekkamanninja/mini2440/libmini2440.a(flash.o)
 .v4_bx         0x33faff5c        0x0 lib_generic/libgeneric.a(crc16.o)
 .v4_bx         0x33faff5c        0x0 lib_generic/libgeneric.a(crc32.o)
 .v4_bx         0x33faff5c        0x0 lib_generic/libgeneric.a(ctype.o)
 .v4_bx         0x33faff5c        0x0 lib_generic/libgeneric.a(display_options.o)
 .v4_bx         0x33faff5c        0x0 lib_generic/libgeneric.a(gunzip.o)
 .v4_bx         0x33faff5c        0x0 lib_generic/libgeneric.a(lmb.o)
 .v4_bx         0x33faff5c        0x0 lib_generic/libgeneric.a(string.o)
 .v4_bx         0x33faff5c        0x0 lib_generic/libgeneric.a(vsprintf.o)
 .v4_bx         0x33faff5c        0x0 lib_generic/libgeneric.a(zlib.o)
 .v4_bx         0x33faff5c        0x0 lib_generic/libgeneric.a(div64.o)
 .v4_bx         0x33faff5c        0x0 cpu/arm920t/s3c24x0/libs3c24x0.a(interrupts.o)
 .v4_bx         0x33faff5c        0x0 cpu/arm920t/s3c24x0/libs3c24x0.a(speed.o)
 .v4_bx         0x33faff5c        0x0 cpu/arm920t/s3c24x0/libs3c24x0.a(timer.o)
 .v4_bx         0x33faff5c        0x0 cpu/arm920t/s3c24x0/libs3c24x0.a(usb_ohci.o)
 .v4_bx         0x33faff5c        0x0 cpu/arm920t/s3c24x0/libs3c24x0.a(mmc.o)
 .v4_bx         0x33faff5c        0x0 lib_arm/libarm.a(bootm.o)
 .v4_bx         0x33faff5c        0x0 lib_arm/libarm.a(cache.o)
 .v4_bx         0x33faff5c        0x0 lib_arm/libarm.a(cache-cp15.o)
 .v4_bx         0x33faff5c        0x0 lib_arm/libarm.a(reset.o)
 .v4_bx         0x33faff5c        0x0 fs/fat/libfat.a(fat.o)
 .v4_bx         0x33faff5c        0x0 fs/jffs2/libjffs2.a(jffs2_1pass.o)
 .v4_bx         0x33faff5c        0x0 fs/jffs2/libjffs2.a(compr_rtime.o)
 .v4_bx         0x33faff5c        0x0 fs/jffs2/libjffs2.a(compr_rubin.o)
 .v4_bx         0x33faff5c        0x0 fs/jffs2/libjffs2.a(compr_zlib.o)
 .v4_bx         0x33faff5c        0x0 fs/jffs2/libjffs2.a(mini_inflate.o)
 .v4_bx         0x33faff5c        0x0 disk/libdisk.a(part.o)
 .v4_bx         0x33faff5c        0x0 disk/libdisk.a(part_dos.o)
 .v4_bx         0x33faff5c        0x0 drivers/mtd/libmtd.a(mtdcore.o)
 .v4_bx         0x33faff5c        0x0 drivers/mtd/nand/libnand.a(nand_util.o)
 .v4_bx         0x33faff5c        0x0 drivers/net/libnet.a(dm9000x.o)
 .v4_bx         0x33faff5c        0x0 drivers/rtc/librtc.a(date.o)
 .v4_bx         0x33faff5c        0x0 drivers/rtc/librtc.a(s3c24x0_rtc.o)
 .v4_bx         0x33faff5c        0x0 drivers/video/libvideo.a(cfb_console.o)
 .v4_bx         0x33faff5c        0x0 drivers/video/libvideo.a(s3c2410_fb.o)
 .v4_bx         0x33faff5c        0x0 drivers/video/libvideo.a(videomodes.o)
 .v4_bx         0x33faff5c        0x0 cpu/arm920t/libarm920t.a(cpu.o)
 .v4_bx         0x33faff5c        0x0 /home/bamboo/work/ok2440/u-boot_for_ok2440/lib_arm/eabi_compat.o
 .v4_bx         0x33faff5c        0x0 /home/bamboo/work/ok2440/cross_tools/4.3.2/bin/../lib/gcc/arm-none-linux-gnueabi/4.3.2/armv4t/libgcc.a(_udivsi3.o)
 .v4_bx         0x33faff5c        0x0 /home/bamboo/work/ok2440/cross_tools/4.3.2/bin/../lib/gcc/arm-none-linux-gnueabi/4.3.2/armv4t/libgcc.a(_divsi3.o)
 .v4_bx         0x33faff5c        0x0 /home/bamboo/work/ok2440/cross_tools/4.3.2/bin/../lib/gcc/arm-none-linux-gnueabi/4.3.2/armv4t/libgcc.a(_lshrdi3.o)
 .v4_bx         0x33faff5c        0x0 /home/bamboo/work/ok2440/cross_tools/4.3.2/bin/../lib/gcc/arm-none-linux-gnueabi/4.3.2/armv4t/libgcc.a(_ashrdi3.o)
 .v4_bx         0x33faff5c        0x0 /home/bamboo/work/ok2440/cross_tools/4.3.2/bin/../lib/gcc/arm-none-linux-gnueabi/4.3.2/armv4t/libgcc.a(_ashldi3.o)
 .v4_bx         0x33faff5c        0x0 /home/bamboo/work/ok2440/cross_tools/4.3.2/bin/../lib/gcc/arm-none-linux-gnueabi/4.3.2/armv4t/libgcc.a(_dvmd_lnx.o)
                0x33faff5c                . = ALIGN (0x4)

.rodata         0x33faff5c     0xaae7
 *(SORT(.rodata*))
 .rodata        0x33faff5c       0x80 lib_arm/libarm.a(interrupts.o)
 .rodata        0x33faffdc       0x4c common/libcommon.a(cmd_bootm.o)
 .rodata        0x33fb0028        0x8 common/libcommon.a(cmd_mtdparts.o)
 .rodata        0x33fb0030       0x14 common/libcommon.a(cmd_nvedit.o)
 .rodata        0x33fb0044      0x400 lib_generic/libgeneric.a(crc32.o)
 .rodata        0x33fb0444      0x9cc lib_generic/libgeneric.a(zlib.o)
                0x33fb0de8                z_errmsg
 .rodata        0x33fb0e10       0x40 cpu/arm920t/s3c24x0/libs3c24x0.a(usb_ohci.o)
 .rodata        0x33fb0e50       0xc4 fs/jffs2/libjffs2.a(jffs2_1pass.o)
 .rodata        0x33fb0f14       0x18 disk/libdisk.a(part.o)
 .rodata        0x33fb0f2c       0x30 drivers/rtc/librtc.a(date.o)
 .rodata        0x33fb0f5c      0x220 drivers/video/libvideo.a(cfb_console.o)
 .rodata        0x33fb117c      0x224 drivers/video/libvideo.a(videomodes.o)
                0x33fb117c                res_mode_init
                0x33fb12b0                vesa_modes
 .rodata        0x33fb13a0      0x200 lib_generic/libgeneric.a(crc16.o)
 .rodata        0x33fb15a0       0x30 lib_arm/libarm.a(board.o)
                0x33fb15a0                version_string
 .rodata        0x33fb15d0        0x7 net/libnet.a(eth.o)
 .rodata        0x33fb15d7        0x7 net/libnet.a(net.o)
 .rodata        0x33fb15de        0x5 drivers/mtd/nand/libnand.a(nand.o)
 .rodata        0x33fb15e3       0x56 drivers/mtd/nand/libnand.a(nand_base.o)
 .rodata        0x33fb1639      0x100 drivers/mtd/nand/libnand.a(nand_ecc.o)
 .rodata        0x33fb1739       0x46 drivers/usb/slave/libusb_slave.a(usbsetup.o)
 .rodata        0x33fb177f       0x21 lib_generic/libgeneric.a(vsprintf.o)
                0x33fb177f                hex_asc
 .rodata        0x33fb17a0       0x13 fs/jffs2/libjffs2.a(mini_inflate.o)
 .rodata.str1.1
                0x33fb17b3      0x117 lib_arm/libarm.a(board.o)
                                0x11d (size before relaxing)
 .rodata.str1.1
                0x33fb18ca      0x264 lib_arm/libarm.a(interrupts.o)
                                0x268 (size before relaxing)
 .rodata.str1.1
                0x33fb1b2e       0xad net/libnet.a(eth.o)
                                 0xc7 (size before relaxing)
 .rodata.str1.1
                0x33fb1bdb      0x20c net/libnet.a(net.o)
                                0x217 (size before relaxing)
 .rodata.str1.1
                0x33fb1de7      0x193 net/libnet.a(nfs.o)
                                0x1a9 (size before relaxing)
 .rodata.str1.1
                0x33fb1f7a       0x20 net/libnet.a(rarp.o)
                                 0x47 (size before relaxing)
 .rodata.str1.1
                0x33fb1f9a      0x117 net/libnet.a(tftp.o)
                                0x1f6 (size before relaxing)
 .rodata.str1.1
                0x33fb20b1      0x100 net/libnet.a(bootp.o)
                                0x13d (size before relaxing)
 .rodata.str1.1
                0x33fb21b1       0x78 drivers/i2c/libi2c.a(s3c24x0_i2c.o)
 .rodata.str1.1
                0x33fb2229        0xf drivers/mtd/nand/libnand.a(nand.o)
 .rodata.str1.1
                0x33fb2238      0x2e3 drivers/mtd/nand/libnand.a(nand_base.o)
 .rodata.str1.1
                0x33fb251b      0x300 drivers/mtd/nand/libnand.a(nand_bbt.o)
 .rodata.str1.1
                0x33fb281b      0x31f drivers/mtd/nand/libnand.a(nand_ids.o)
                                0x335 (size before relaxing)
 .rodata.str1.1
                0x33fb2b3a      0x14d drivers/usb/slave/libusb_slave.a(usbinit.o)
 .rodata.str1.1
                0x33fb2c87       0x36 drivers/usb/slave/libusb_slave.a(interrupt.o)
 .rodata.str1.1
                0x33fb2cbd       0x17 drivers/usb/slave/libusb_slave.a(usbout.o)
 .rodata.str1.1
                0x33fb2cd4      0x102 drivers/usb/slave/libusb_slave.a(usbsetup.o)
                                0x10c (size before relaxing)
 .rodata.str1.1
                0x33fb2dd6       0xaa common/libcommon.a(cmd_bdinfo.o)
                                 0xb3 (size before relaxing)
 .rodata.str1.1
                0x33fb2e80      0x177 common/libcommon.a(cmd_bmp.o)
                                0x184 (size before relaxing)
 .rodata.str1.1
                0x33fb2ff7       0xef common/libcommon.a(cmd_boot.o)
                                 0xf0 (size before relaxing)
 .rodata.str1.1
                0x33fb30e6      0x86b common/libcommon.a(cmd_bootm.o)
                                0x8c8 (size before relaxing)
 .rodata.str1.1
                0x33fb3951       0xd9 common/libcommon.a(cmd_cache.o)
                                0x107 (size before relaxing)
 .rodata.str1.1
                0x33fb3a2a       0x5c common/libcommon.a(cmd_console.o)
                                 0x61 (size before relaxing)
 .rodata.str1.1
                0x33fb3a86      0x175 common/libcommon.a(cmd_date.o)
                                0x17b (size before relaxing)
 .rodata.str1.1
                0x33fb3bfb       0xc1 common/libcommon.a(cmd_eeprom.o)
                                 0xc7 (size before relaxing)
 .rodata.str1.1
                0x33fb3cbc      0x278 common/libcommon.a(cmd_elf.o)
                                0x29a (size before relaxing)
 .rodata.str1.1
                0x33fb3f34      0x396 common/libcommon.a(cmd_fat.o)
                                0x3a5 (size before relaxing)
 .rodata.str1.1
                0x33fb42ca      0x85d common/libcommon.a(cmd_flash.o)
                                0x871 (size before relaxing)
 .rodata.str1.1
                0x33fb4b27      0x357 common/libcommon.a(cmd_i2c.o)
                                0x387 (size before relaxing)
 .rodata.str1.1
                0x33fb4e7e       0xb3 common/libcommon.a(cmd_itest.o)
                                 0xb5 (size before relaxing)
 .rodata.str1.1
                0x33fb4f31      0x190 common/libcommon.a(cmd_jffs2.o)
                                0x1d6 (size before relaxing)
 .rodata.str1.1
                0x33fb50c1      0x3ae common/libcommon.a(cmd_load.o)
                                0x3c8 (size before relaxing)
 .rodata.str1.1
                0x33fb546f      0x4f2 common/libcommon.a(cmd_mem.o)
                                0x528 (size before relaxing)
 .rodata.str1.1
                0x33fb5961       0x5f common/libcommon.a(cmd_misc.o)
 .rodata.str1.1
                0x33fb59c0       0xc0 common/libcommon.a(cmd_mmc.o)
                                 0xc7 (size before relaxing)
 .rodata.str1.1
                0x33fb5a80      0xcfd common/libcommon.a(cmd_mtdparts.o)
                                0xd69 (size before relaxing)
 .rodata.str1.1
                0x33fb677d      0x847 common/libcommon.a(cmd_nand.o)
                                0x8a6 (size before relaxing)
 .rodata.str1.1
                0x33fb6fc4      0x1e1 common/libcommon.a(cmd_net.o)
                                0x223 (size before relaxing)
 .rodata.str1.1
                0x33fb71a5      0x4db common/libcommon.a(cmd_nvedit.o)
                                0x541 (size before relaxing)
 .rodata.str1.1
                0x33fb7680       0x23 common/libcommon.a(cmd_reginfo.o)
                                 0x24 (size before relaxing)
 .rodata.str1.1
                0x33fb76a3      0x101 common/libcommon.a(cmd_source.o)
                                0x108 (size before relaxing)
 .rodata.str1.1
                0x33fb77a4      0x791 common/libcommon.a(cmd_usb.o)
                                0x8c9 (size before relaxing)
 .rodata.str1.1
                0x33fb7f35       0xa8 common/libcommon.a(cmd_usbslave.o)
                                 0xb4 (size before relaxing)
 .rodata.str1.1
                0x33fb7fdd      0x10e common/libcommon.a(cmd_ximg.o)
                                0x19c (size before relaxing)
 .rodata.str1.1
                0x33fb80eb      0x299 common/libcommon.a(command.o)
                                0x2f8 (size before relaxing)
 .rodata.str1.1
                0x33fb8384       0x77 common/libcommon.a(console.o)
                                 0x8f (size before relaxing)
 .rodata.str1.1
                0x33fb83fb       0x33 common/libcommon.a(env_common.o)
                                 0x37 (size before relaxing)
 .rodata.str1.1
                0x33fb842e       0x6e common/libcommon.a(env_nand.o)
                                 0x74 (size before relaxing)
 .rodata.str1.1
                0x33fb849c       0xf7 common/libcommon.a(flash.o)
                                0x10c (size before relaxing)
 .rodata.str1.1
                0x33fb8593      0x234 common/libcommon.a(hush.o)
                                0x26e (size before relaxing)
 .rodata.str1.1
                0x33fb87c7      0x44d common/libcommon.a(image.o)
                                0x4ed (size before relaxing)
 .rodata.str1.1
                0x33fb8c14       0x8a common/libcommon.a(main.o)
                                 0xf1 (size before relaxing)
 .rodata.str1.1
                0x33fb8c9e        0x8 common/libcommon.a(stdio.o)
                                 0x23 (size before relaxing)
 .rodata.str1.1
                0x33fb8ca6      0x28b common/libcommon.a(usb.o)
 .rodata.str1.1
                0x33fb8f31      0x1ed common/libcommon.a(usb_storage.o)
                                0x1ff (size before relaxing)
 .rodata.str1.1
                0x33fb911e       0xe3 common/libcommon.a(xyzModem.o)
                                 0xe5 (size before relaxing)
 .rodata.str1.1
                0x33fb9201       0xfd board/tekkamanninja/mini2440/libmini2440.a(flash.o)
                                0x105 (size before relaxing)
 .rodata.str1.1
                0x33fb92fe       0x11 lib_generic/libgeneric.a(display_options.o)
                                 0x36 (size before relaxing)
 .rodata.str1.1
                0x33fb930f       0x85 lib_generic/libgeneric.a(gunzip.o)
 .rodata.str1.1
                0x33fb9394       0x34 lib_generic/libgeneric.a(lmb.o)
 .rodata.str1.1
                0x33fb93c8        0xe lib_generic/libgeneric.a(vsprintf.o)
 .rodata.str1.1
                0x33fb93d6      0x21c lib_generic/libgeneric.a(zlib.o)
                                0x21d (size before relaxing)
 .rodata.str1.1
                0x33fb95f2      0x238 cpu/arm920t/s3c24x0/libs3c24x0.a(usb_ohci.o)
 .rodata.str1.1
                0x33fb982a      0x334 cpu/arm920t/s3c24x0/libs3c24x0.a(mmc.o)
                                0x343 (size before relaxing)
 .rodata.str1.1
                0x33fb9b5e       0x42 lib_arm/libarm.a(bootm.o)
                                 0x4b (size before relaxing)
 .rodata.str1.1
                0x33fb9ba0        0xf lib_arm/libarm.a(reset.o)
 .rodata.str1.1
                0x33fb9baf      0x15b fs/fat/libfat.a(fat.o)
                                0x16d (size before relaxing)
 .rodata.str1.1
                0x33fb9d0a      0x40a fs/jffs2/libjffs2.a(jffs2_1pass.o)
                                0x41d (size before relaxing)
 .rodata.str1.1
                0x33fba114      0x1af disk/libdisk.a(part.o)
                                0x1e4 (size before relaxing)
 .rodata.str1.1
                0x33fba2c3       0xe5 disk/libdisk.a(part_dos.o)
                                 0xf1 (size before relaxing)
 .rodata.str1.1
                0x33fba3a8       0x50 drivers/mtd/libmtd.a(mtdcore.o)
 .rodata.str1.1
                0x33fba3f8      0x2ba drivers/mtd/nand/libnand.a(nand_util.o)
                                0x2bc (size before relaxing)
 .rodata.str1.1
                0x33fba6b2      0x1de drivers/net/libnet.a(dm9000x.o)
                                0x1e4 (size before relaxing)
 .rodata.str1.1
                0x33fba890      0x103 drivers/video/libvideo.a(cfb_console.o)
                                0x16d (size before relaxing)
 .rodata.str1.1
                0x33fba993       0x54 drivers/video/libvideo.a(s3c2410_fb.o)
                                 0x58 (size before relaxing)
 .rodata.str1.1
                0x33fba9e7       0x41 drivers/video/libvideo.a(videomodes.o)
                                 0x4a (size before relaxing)
 .rodata.str1.1
                0x33fbaa28       0x1b /home/bamboo/work/ok2440/u-boot_for_ok2440/lib_arm/eabi_compat.o
                0x33fbaa44                . = ALIGN (0x4)

.data           0x33fbaa44     0x633c
 *(.data)
 .data          0x33fbaa44        0x0 cpu/arm920t/start.o
 .data          0x33fbaa44        0x0 board/tekkamanninja/mini2440/lowlevel_init.o
 .data          0x33fbaa44        0x0 board/tekkamanninja/mini2440/nand_read.o
 .data          0x33fbaa44       0x30 lib_arm/libarm.a(board.o)
                0x33fbaa44                init_sequence
 .data          0x33fbaa74        0x0 lib_arm/libarm.a(interrupts.o)
 .data          0x33fbaa74        0x0 net/libnet.a(eth.o)
 .data          0x33fbaa74        0xa net/libnet.a(net.o)
                0x33fbaa78                NetBcastAddr
                0x33fbaa76                NetOurNativeVLAN
                0x33fbaa74                NetOurVLAN
 *fill*         0x33fbaa7e        0x2 00
 .data          0x33fbaa80        0x4 net/libnet.a(nfs.o)
 .data          0x33fbaa84        0x0 net/libnet.a(rarp.o)
 .data          0x33fbaa84       0x18 net/libnet.a(tftp.o)
                0x33fbaa88                TftpRRQTimeoutMSecs
                0x33fbaa94                TftpRRQTimeoutCountMax
 .data          0x33fbaa9c        0x0 net/libnet.a(bootp.o)
 .data          0x33fbaa9c        0x0 drivers/i2c/libi2c.a(s3c24x0_i2c.o)
 .data          0x33fbaa9c        0x4 drivers/mtd/nand/libnand.a(nand.o)
                0x33fbaa9c                nand_curr_device
 .data          0x33fbaaa0      0x520 drivers/mtd/nand/libnand.a(nand_base.o)
 .data          0x33fbafc0      0x10c drivers/mtd/nand/libnand.a(nand_bbt.o)
 .data          0x33fbb0cc        0x0 drivers/mtd/nand/libnand.a(nand_ecc.o)
 .data          0x33fbb0cc      0x4a0 drivers/mtd/nand/libnand.a(nand_ids.o)
                0x33fbb51c                nand_manuf_ids
                0x33fbb0cc                nand_flash_ids
 .data          0x33fbb56c        0x4 drivers/mtd/nand/libnand.a(s3c2410_nand.o)
                0x33fbb56c                IO_ADDR_W
 .data          0x33fbb570        0x0 drivers/serial/libserial.a(serial_s3c24x0.o)
 .data          0x33fbb570        0x0 drivers/usb/slave/libusb_slave.a(usbinit.o)
 .data          0x33fbb570        0x0 drivers/usb/slave/libusb_slave.a(interrupt.o)
 .data          0x33fbb570        0x0 drivers/usb/slave/libusb_slave.a(usblib.o)
 .data          0x33fbb570        0x0 drivers/usb/slave/libusb_slave.a(usbmain.o)
 .data          0x33fbb570        0x0 drivers/usb/slave/libusb_slave.a(usbout.o)
 .data          0x33fbb570        0x2 drivers/usb/slave/libusb_slave.a(usbsetup.o)
                0x33fbb571                Configuration
                0x33fbb570                Selfpwr
 .data          0x33fbb572        0x0 drivers/usb/slave/libusb_slave.a(usbin.o)
 .data          0x33fbb572        0x0 common/libcommon.a(cmd_bdinfo.o)
 .data          0x33fbb572        0x0 common/libcommon.a(cmd_bmp.o)
 .data          0x33fbb572        0x0 common/libcommon.a(cmd_boot.o)
 *fill*         0x33fbb572        0x2 00
 .data          0x33fbb574       0xac common/libcommon.a(cmd_bootm.o)
                0x33fbb574                load_addr
                0x33fbb578                cmd_bootm_sub
 .data          0x33fbb620        0x0 common/libcommon.a(cmd_cache.o)
 .data          0x33fbb620        0x0 common/libcommon.a(cmd_console.o)
 .data          0x33fbb620       0x1c common/libcommon.a(cmd_date.o)
                0x33fbb620                weekdays
 .data          0x33fbb63c        0x0 common/libcommon.a(cmd_eeprom.o)
 .data          0x33fbb63c        0x0 common/libcommon.a(cmd_elf.o)
 .data          0x33fbb63c        0x0 common/libcommon.a(cmd_fat.o)
 .data          0x33fbb63c        0x0 common/libcommon.a(cmd_flash.o)
 .data          0x33fbb63c        0x4 common/libcommon.a(cmd_i2c.o)
 .data          0x33fbb640       0x68 common/libcommon.a(cmd_itest.o)
                0x33fbb640                op_table
 .data          0x33fbb6a8        0x0 common/libcommon.a(cmd_jffs2.o)
 .data          0x33fbb6a8        0x4 common/libcommon.a(cmd_load.o)
 .data          0x33fbb6ac        0x4 common/libcommon.a(cmd_mem.o)
                0x33fbb6ac                dp_last_length
 .data          0x33fbb6b0        0x0 common/libcommon.a(cmd_misc.o)
 .data          0x33fbb6b0        0x4 common/libcommon.a(cmd_mmc.o)
 .data          0x33fbb6b4        0x0 common/libcommon.a(cmd_mtdparts.o)
 .data          0x33fbb6b4        0x0 common/libcommon.a(cmd_nand.o)
 .data          0x33fbb6b4        0x0 common/libcommon.a(cmd_net.o)
 .data          0x33fbb6b4        0x4 common/libcommon.a(cmd_nvedit.o)
 .data          0x33fbb6b8        0x0 common/libcommon.a(cmd_reginfo.o)
 .data          0x33fbb6b8        0x0 common/libcommon.a(cmd_source.o)
 .data          0x33fbb6b8        0x4 common/libcommon.a(cmd_usb.o)
 .data          0x33fbb6bc        0x4 common/libcommon.a(cmd_usbslave.o)
                0x33fbb6bc                g_bUSBWait
 .data          0x33fbb6c0        0x0 common/libcommon.a(cmd_ximg.o)
 .data          0x33fbb6c0        0x0 common/libcommon.a(command.o)
 .data          0x33fbb6c0        0x0 common/libcommon.a(console.o)
 .data          0x33fbb6c0      0x414 common/libcommon.a(dlmalloc.o)
 .data          0x33fbbad4      0x1de common/libcommon.a(env_common.o)
                0x33fbbad4                default_environment
 *fill*         0x33fbbcb2        0x2 00
 .data          0x33fbbcb4        0x4 common/libcommon.a(env_nand.o)
                0x33fbbcb4                env_name_spec
 .data          0x33fbbcb8        0x0 common/libcommon.a(exports.o)
 .data          0x33fbbcb8        0x0 common/libcommon.a(flash.o)
 .data          0x33fbbcb8       0xac common/libcommon.a(hush.o)
 .data          0x33fbbd64      0x210 common/libcommon.a(image.o)
 .data          0x33fbbf74       0x14 common/libcommon.a(main.o)
 .data          0x33fbbf88        0x0 common/libcommon.a(s_record.o)
 .data          0x33fbbf88        0xc common/libcommon.a(stdio.o)
                0x33fbbf88                stdio_names
 .data          0x33fbbf94        0x0 common/libcommon.a(usb.o)
 .data          0x33fbbf94       0x20 common/libcommon.a(usb_storage.o)
                0x33fbbf94                us_direction
 .data          0x33fbbfb4        0x0 common/libcommon.a(xyzModem.o)
 .data          0x33fbbfb4        0x0 board/tekkamanninja/mini2440/libmini2440.a(mini2440.o)
 .data          0x33fbbfb4        0x0 board/tekkamanninja/mini2440/libmini2440.a(flash.o)
 .data          0x33fbbfb4        0x0 lib_generic/libgeneric.a(crc16.o)
 .data          0x33fbbfb4        0x0 lib_generic/libgeneric.a(crc32.o)
 .data          0x33fbbfb4      0x100 lib_generic/libgeneric.a(ctype.o)
                0x33fbbfb4                _ctype
 .data          0x33fbc0b4        0x0 lib_generic/libgeneric.a(display_options.o)
 .data          0x33fbc0b4        0x0 lib_generic/libgeneric.a(gunzip.o)
 .data          0x33fbc0b4        0x0 lib_generic/libgeneric.a(lmb.o)
 .data          0x33fbc0b4        0x0 lib_generic/libgeneric.a(string.o)
 .data          0x33fbc0b4        0x0 lib_generic/libgeneric.a(vsprintf.o)
 .data          0x33fbc0b4        0x0 lib_generic/libgeneric.a(zlib.o)
 .data          0x33fbc0b4        0x0 lib_generic/libgeneric.a(div64.o)
 .data          0x33fbc0b4        0x0 cpu/arm920t/s3c24x0/libs3c24x0.a(interrupts.o)
 .data          0x33fbc0b4        0x0 cpu/arm920t/s3c24x0/libs3c24x0.a(speed.o)
 .data          0x33fbc0b4        0x0 cpu/arm920t/s3c24x0/libs3c24x0.a(timer.o)
 .data          0x33fbc0b4       0x4b cpu/arm920t/s3c24x0/libs3c24x0.a(usb_ohci.o)
 *fill*         0x33fbc0ff        0x1 00
 .data          0x33fbc100        0x2 cpu/arm920t/s3c24x0/libs3c24x0.a(mmc.o)
 .data          0x33fbc102        0x0 lib_arm/libarm.a(bootm.o)
 .data          0x33fbc102        0x0 lib_arm/libarm.a(cache.o)
 .data          0x33fbc102        0x0 lib_arm/libarm.a(cache-cp15.o)
 .data          0x33fbc102        0x0 lib_arm/libarm.a(reset.o)
 *fill*         0x33fbc102        0x2 00
 .data          0x33fbc104        0x4 fs/fat/libfat.a(fat.o)
 .data          0x33fbc108        0x4 fs/jffs2/libjffs2.a(jffs2_1pass.o)
 .data          0x33fbc10c        0x0 fs/jffs2/libjffs2.a(compr_rtime.o)
 .data          0x33fbc10c        0x0 fs/jffs2/libjffs2.a(compr_rubin.o)
 .data          0x33fbc10c        0x0 fs/jffs2/libjffs2.a(compr_zlib.o)
 .data          0x33fbc10c        0x0 fs/jffs2/libjffs2.a(mini_inflate.o)
 .data          0x33fbc10c        0x0 disk/libdisk.a(part.o)
 .data          0x33fbc10c        0x0 disk/libdisk.a(part_dos.o)
 .data          0x33fbc10c        0x0 drivers/mtd/libmtd.a(mtdcore.o)
 .data          0x33fbc10c        0x0 drivers/mtd/nand/libnand.a(nand_util.o)
 .data          0x33fbc10c        0x0 drivers/net/libnet.a(dm9000x.o)
 .data          0x33fbc10c       0x30 drivers/rtc/librtc.a(date.o)
 .data          0x33fbc13c        0x0 drivers/rtc/librtc.a(s3c24x0_rtc.o)
 .data          0x33fbc13c     0x4c44 drivers/video/libvideo.a(cfb_console.o)
                0x33fbd17e                bmp_logo_bitmap
                0x33fbd140                bmp_logo_palette
 .data          0x33fc0d80        0x0 drivers/video/libvideo.a(s3c2410_fb.o)
 .data          0x33fc0d80        0x0 drivers/video/libvideo.a(videomodes.o)
 .data          0x33fc0d80        0x0 cpu/arm920t/libarm920t.a(cpu.o)
 .data          0x33fc0d80        0x0 /home/bamboo/work/ok2440/u-boot_for_ok2440/lib_arm/eabi_compat.o
 .data          0x33fc0d80        0x0 /home/bamboo/work/ok2440/cross_tools/4.3.2/bin/../lib/gcc/arm-none-linux-gnueabi/4.3.2/armv4t/libgcc.a(_udivsi3.o)
 .data          0x33fc0d80        0x0 /home/bamboo/work/ok2440/cross_tools/4.3.2/bin/../lib/gcc/arm-none-linux-gnueabi/4.3.2/armv4t/libgcc.a(_divsi3.o)
 .data          0x33fc0d80        0x0 /home/bamboo/work/ok2440/cross_tools/4.3.2/bin/../lib/gcc/arm-none-linux-gnueabi/4.3.2/armv4t/libgcc.a(_lshrdi3.o)
 .data          0x33fc0d80        0x0 /home/bamboo/work/ok2440/cross_tools/4.3.2/bin/../lib/gcc/arm-none-linux-gnueabi/4.3.2/armv4t/libgcc.a(_ashrdi3.o)
 .data          0x33fc0d80        0x0 /home/bamboo/work/ok2440/cross_tools/4.3.2/bin/../lib/gcc/arm-none-linux-gnueabi/4.3.2/armv4t/libgcc.a(_ashldi3.o)
 .data          0x33fc0d80        0x0 /home/bamboo/work/ok2440/cross_tools/4.3.2/bin/../lib/gcc/arm-none-linux-gnueabi/4.3.2/armv4t/libgcc.a(_dvmd_lnx.o)
                0x33fc0d80                . = ALIGN (0x4)

.got
 *(.got)
                0x33fc0d80                . = .
                0x33fc0d80                __u_boot_cmd_start = .

.u_boot_cmd     0x33fc0d80      0x7fc
 *(.u_boot_cmd)
 .u_boot_cmd    0x33fc0d80       0x1c common/libcommon.a(cmd_bdinfo.o)
                0x33fc0d80                __u_boot_cmd_bdinfo
 .u_boot_cmd    0x33fc0d9c       0x1c common/libcommon.a(cmd_bmp.o)
                0x33fc0d9c                __u_boot_cmd_bmp
 .u_boot_cmd    0x33fc0db8       0x38 common/libcommon.a(cmd_boot.o)
                0x33fc0dd4                __u_boot_cmd_reset
                0x33fc0db8                __u_boot_cmd_go
 .u_boot_cmd    0x33fc0df0       0x8c common/libcommon.a(cmd_bootm.o)
                0x33fc0df0                __u_boot_cmd_bootm
                0x33fc0e44                __u_boot_cmd_iminfo
                0x33fc0e28                __u_boot_cmd_bootd
                0x33fc0e0c                __u_boot_cmd_boot
                0x33fc0e60                __u_boot_cmd_imls
 .u_boot_cmd    0x33fc0e7c       0x38 common/libcommon.a(cmd_cache.o)
                0x33fc0e98                __u_boot_cmd_dcache
                0x33fc0e7c                __u_boot_cmd_icache
 .u_boot_cmd    0x33fc0eb4       0x1c common/libcommon.a(cmd_console.o)
                0x33fc0eb4                __u_boot_cmd_coninfo
 .u_boot_cmd    0x33fc0ed0       0x1c common/libcommon.a(cmd_date.o)
                0x33fc0ed0                __u_boot_cmd_date
 .u_boot_cmd    0x33fc0eec       0x1c common/libcommon.a(cmd_eeprom.o)
                0x33fc0eec                __u_boot_cmd_eeprom
 .u_boot_cmd    0x33fc0f08       0x38 common/libcommon.a(cmd_elf.o)
                0x33fc0f24                __u_boot_cmd_bootvx
                0x33fc0f08                __u_boot_cmd_bootelf
 .u_boot_cmd    0x33fc0f40       0x54 common/libcommon.a(cmd_fat.o)
                0x33fc0f78                __u_boot_cmd_fatinfo
                0x33fc0f40                __u_boot_cmd_fatload
                0x33fc0f5c                __u_boot_cmd_fatls
 .u_boot_cmd    0x33fc0f94       0x54 common/libcommon.a(cmd_flash.o)
                0x33fc0f94                __u_boot_cmd_flinfo
                0x33fc0fb0                __u_boot_cmd_erase
                0x33fc0fcc                __u_boot_cmd_protect
 .u_boot_cmd    0x33fc0fe8       0x1c common/libcommon.a(cmd_i2c.o)
                0x33fc0fe8                __u_boot_cmd_i2c
 .u_boot_cmd    0x33fc1004       0x1c common/libcommon.a(cmd_itest.o)
                0x33fc1004                __u_boot_cmd_itest
 .u_boot_cmd    0x33fc1020       0x54 common/libcommon.a(cmd_jffs2.o)
                0x33fc1058                __u_boot_cmd_fsinfo
                0x33fc1020                __u_boot_cmd_fsload
                0x33fc103c                __u_boot_cmd_ls
 .u_boot_cmd    0x33fc1074       0x70 common/libcommon.a(cmd_load.o)
                0x33fc10c8                __u_boot_cmd_loady
                0x33fc1090                __u_boot_cmd_loadb
                0x33fc1074                __u_boot_cmd_loads
                0x33fc10ac                __u_boot_cmd_loadx
 .u_boot_cmd    0x33fc10e4      0x134 common/libcommon.a(cmd_mem.o)
                0x33fc10e4                __u_boot_cmd_md
                0x33fc1170                __u_boot_cmd_cmp
                0x33fc1138                __u_boot_cmd_mw
                0x33fc11c4                __u_boot_cmd_loop
                0x33fc11a8                __u_boot_cmd_base
                0x33fc1100                __u_boot_cmd_mm
                0x33fc118c                __u_boot_cmd_crc32
                0x33fc111c                __u_boot_cmd_nm
                0x33fc11fc                __u_boot_cmd_unzip
                0x33fc11e0                __u_boot_cmd_mtest
                0x33fc1154                __u_boot_cmd_cp
 .u_boot_cmd    0x33fc1218       0x1c common/libcommon.a(cmd_misc.o)
                0x33fc1218                __u_boot_cmd_sleep
 .u_boot_cmd    0x33fc1234       0x1c common/libcommon.a(cmd_mmc.o)
                0x33fc1234                __u_boot_cmd_mmc
 .u_boot_cmd    0x33fc1250       0x38 common/libcommon.a(cmd_mtdparts.o)
                0x33fc1250                __u_boot_cmd_chpart
                0x33fc126c                __u_boot_cmd_mtdparts
 .u_boot_cmd    0x33fc1288       0x38 common/libcommon.a(cmd_nand.o)
                0x33fc1288                __u_boot_cmd_nand
                0x33fc12a4                __u_boot_cmd_nboot
 .u_boot_cmd    0x33fc12c0       0xa8 common/libcommon.a(cmd_net.o)
                0x33fc1330                __u_boot_cmd_nfs
                0x33fc134c                __u_boot_cmd_ping
                0x33fc12f8                __u_boot_cmd_rarpboot
                0x33fc12dc                __u_boot_cmd_tftpboot
                0x33fc12c0                __u_boot_cmd_bootp
                0x33fc1314                __u_boot_cmd_dhcp
 .u_boot_cmd    0x33fc1368       0xa8 common/libcommon.a(cmd_nvedit.o)
                0x33fc1384                __u_boot_cmd_editenv
                0x33fc13f4                __u_boot_cmd_run
                0x33fc1368                __u_boot_cmd_saveenv
                0x33fc13d8                __u_boot_cmd_askenv
                0x33fc13a0                __u_boot_cmd_printenv
                0x33fc13bc                __u_boot_cmd_setenv
 .u_boot_cmd    0x33fc1410       0x1c common/libcommon.a(cmd_reginfo.o)
                0x33fc1410                __u_boot_cmd_reginfo
 .u_boot_cmd    0x33fc142c       0x1c common/libcommon.a(cmd_source.o)
                0x33fc142c                __u_boot_cmd_source
 .u_boot_cmd    0x33fc1448       0x38 common/libcommon.a(cmd_usb.o)
                0x33fc1448                __u_boot_cmd_usb
                0x33fc1464                __u_boot_cmd_usbboot
 .u_boot_cmd    0x33fc1480       0x1c common/libcommon.a(cmd_usbslave.o)
                0x33fc1480                __u_boot_cmd_usbslave
 .u_boot_cmd    0x33fc149c       0x1c common/libcommon.a(cmd_ximg.o)
                0x33fc149c                __u_boot_cmd_imxtract
 .u_boot_cmd    0x33fc14b8       0xa8 common/libcommon.a(command.o)
                0x33fc150c                __u_boot_cmd_exit
                0x33fc14d4                __u_boot_cmd_echo
                0x33fc1544                __u_boot_cmd_question_mark
                0x33fc14b8                __u_boot_cmd_version
                0x33fc1528                __u_boot_cmd_help
                0x33fc14f0                __u_boot_cmd_test
 .u_boot_cmd    0x33fc1560       0x1c common/libcommon.a(hush.o)
                0x33fc1560                __u_boot_cmd_showvar
                0x33fc157c                __u_boot_cmd_end = .
                0x33fc157c                . = ALIGN (0x4)
                0x33fc157c                __bss_start = .

.bss            0x33fc1600    0x461cc
 *(.bss)
 .bss           0x33fc1600        0x0 cpu/arm920t/start.o
 .bss           0x33fc1600        0x0 board/tekkamanninja/mini2440/lowlevel_init.o
 .bss           0x33fc1600        0x0 board/tekkamanninja/mini2440/nand_read.o
 .bss           0x33fc1600        0x4 lib_arm/libarm.a(board.o)
                0x33fc1600                monitor_flash_len
 .bss           0x33fc1604        0x0 lib_arm/libarm.a(interrupts.o)
 .bss           0x33fc1604       0x14 net/libnet.a(eth.o)
 .bss           0x33fc1618     0x25e4 net/libnet.a(net.o)
                0x33fc1684                NetArpWaitTry
                0x33fc164c                NetArpWaitPacketMAC
                0x33fc1634                NetOurEther
                0x33fc1630                NetOurIP
                0x33fc163c                NetPingIP
                0x33fc165c                NetServerIP
                0x33fc1658                NetArpWaitTxPacketSize
                0x33fc1650                NetArpWaitReplyIP
                0x33fc1654                NetArpWaitTxPacket
                0x33fc34bc                NetRxPackets
                0x33fc3af8                NetOurNISDomain
                0x33fc1648                NetArpWaitPacketIP
                0x33fc1618                NetState
                0x33fc3b7a                BootFile
                0x33fc1660                NetServerEther
                0x33fc166c                NetOurSubnetMask
                0x33fc3b78                NetBootFileSize
                0x33fc162c                NetIPID
                0x33fc1640                NetRxPacket
                0x33fc3b18                NetOurHostName
                0x33fc1670                NetOurGatewayIP
                0x33fc167a                NetEtherNullAddr
                0x33fc1694                NetRestartWrap
                0x33fc34cc                NetArpWaitPacketBuf
                0x33fc1668                NetTxPacket
                0x33fc3af0                NetBootFileXferSize
                0x33fc3af4                NetOurDNSIP
                0x33fc1644                NetRxPacketLen
                0x33fc169c                PktBuf
                0x33fc3b38                NetOurRootPath
                0x33fc1688                NetArpWaitTimerStart
 .bss           0x33fc3bfc      0x8b0 net/libnet.a(nfs.o)
 .bss           0x33fc44ac        0x4 net/libnet.a(rarp.o)
                0x33fc44ac                RarpTry
 .bss           0x33fc44b0       0xb4 net/libnet.a(tftp.o)
 .bss           0x33fc4564       0x14 net/libnet.a(bootp.o)
                0x33fc4568                NetDHCPServerIP
                0x33fc456c                dhcp_state
                0x33fc4570                BootpTry
                0x33fc4574                BootpID
                0x33fc4564                dhcp_leasetime
 .bss           0x33fc4578        0x0 drivers/i2c/libi2c.a(s3c24x0_i2c.o)
 .bss           0x33fc4578      0x1d0 drivers/mtd/nand/libnand.a(nand.o)
                0x33fc4578                nand_info
 .bss           0x33fc4748        0x0 drivers/mtd/nand/libnand.a(nand_base.o)
 .bss           0x33fc4748        0x0 drivers/mtd/nand/libnand.a(nand_bbt.o)
 .bss           0x33fc4748        0x0 drivers/mtd/nand/libnand.a(nand_ecc.o)
 .bss           0x33fc4748        0x0 drivers/mtd/nand/libnand.a(nand_ids.o)
 .bss           0x33fc4748        0x0 drivers/mtd/nand/libnand.a(s3c2410_nand.o)
 .bss           0x33fc4748        0x0 drivers/serial/libserial.a(serial_s3c24x0.o)
 .bss           0x33fc4748       0x4c drivers/usb/slave/libusb_slave.a(usbinit.o)
                0x33fc4770                dwWillDMACnt
                0x33fc4760                tempDownloadAddress
                0x33fc4780                menuUsed
                0x33fc4774                totalDmaCount
                0x33fc4764                downloadAddress
                0x33fc474c                download_run
                0x33fc476c                downloadFileSize
                0x33fc4758                dwUSBBufWritePtr
                0x33fc477c                err
                0x33fc478c                dwUSBBufSize
                0x33fc4790                consoleNum
                0x33fc4784                run
                0x33fc4788                checkSum
                0x33fc4778                restart
                0x33fc475c                bDMAPending
                0x33fc4754                dwUSBBufReadPtr
                0x33fc4748                isUsbdSetConfiguration
                0x33fc4768                downPt
                0x33fc4750                dwUSBBufBase
 .bss           0x33fc4794       0xd0 drivers/usb/slave/libusb_slave.a(interrupt.o)
                0x33fc479c                isr_handle_array
                0x33fc4798                g_TimerIntHappen
 .bss           0x33fc4864        0x0 drivers/usb/slave/libusb_slave.a(usblib.o)
 .bss           0x33fc4864     0x1008 drivers/usb/slave/libusb_slave.a(usbmain.o)
                0x33fc5868                dbgStrRdPt
                0x33fc4868                dbgStrFifo
                0x33fc4864                dbgStrWrPt
 .bss           0x33fc586c       0x20 drivers/usb/slave/libusb_slave.a(usbout.o)
                0x33fc586c                ep3Buf
 .bss           0x33fc588c       0x58 drivers/usb/slave/libusb_slave.a(usbsetup.o)
                0x33fc58b0                descEndpt0
                0x33fc58c0                ep0State
                0x33fc58e0                endpoint1_status
                0x33fc58d8                ep0SubState
                0x33fc588c                descDev
                0x33fc58dc                AlterSetting
                0x33fc58de                interface_status
                0x33fc58df                endpoint0_status
                0x33fc58d0                ConfigSet
                0x33fc58d7                InterfaceGet
                0x33fc58dd                device_status
                0x33fc589e                descConf
                0x33fc58d1                Rwuen
                0x33fc58e1                endpoint3_status
                0x33fc58b7                descEndpt1
                0x33fc58d2                StatusGet
                0x33fc58a7                descIf
                0x33fc58c4                descSetup
 .bss           0x33fc58e4       0x24 drivers/usb/slave/libusb_slave.a(usbin.o)
                0x33fc58e8                ep1Buf
                0x33fc58e4                transferIndex
 .bss           0x33fc5908        0x0 common/libcommon.a(cmd_bdinfo.o)
 .bss           0x33fc5908        0x0 common/libcommon.a(cmd_bmp.o)
 .bss           0x33fc5908        0x0 common/libcommon.a(cmd_boot.o)
 .bss           0x33fc5908      0x12c common/libcommon.a(cmd_bootm.o)
 .bss           0x33fc5a34        0x0 common/libcommon.a(cmd_cache.o)
 .bss           0x33fc5a34        0x0 common/libcommon.a(cmd_console.o)
 .bss           0x33fc5a34        0x0 common/libcommon.a(cmd_date.o)
 .bss           0x33fc5a34        0x0 common/libcommon.a(cmd_eeprom.o)
 .bss           0x33fc5a34        0x0 common/libcommon.a(cmd_elf.o)
 .bss           0x33fc5a34        0x0 common/libcommon.a(cmd_fat.o)
 .bss           0x33fc5a34        0x0 common/libcommon.a(cmd_flash.o)
 .bss           0x33fc5a34       0x18 common/libcommon.a(cmd_i2c.o)
 .bss           0x33fc5a4c        0x0 common/libcommon.a(cmd_itest.o)
 .bss           0x33fc5a4c        0x0 common/libcommon.a(cmd_jffs2.o)
 .bss           0x33fc5a4c       0x60 common/libcommon.a(cmd_load.o)
                0x33fc5a78                his_pad_char
                0x33fc5a5c                os_data_init
                0x33fc5a7c                send_ptr
                0x33fc5a6c                os_data_char
                0x33fc5a79                his_eol
                0x33fc5a70                his_quote
                0x33fc5a80                send_parms
                0x33fc5a74                his_pad_count
 .bss           0x33fc5aac       0x14 common/libcommon.a(cmd_mem.o)
                0x33fc5abc                dp_last_size
                0x33fc5ab8                dp_last_addr
                0x33fc5ab4                mm_last_size
                0x33fc5ab0                mm_last_addr
 .bss           0x33fc5ac0        0x0 common/libcommon.a(cmd_misc.o)
 .bss           0x33fc5ac0        0x0 common/libcommon.a(cmd_mmc.o)
 .bss           0x33fc5ac0      0x2ac common/libcommon.a(cmd_mtdparts.o)
                0x33fc5ac8                current_mtd_dev
                0x33fc5acc                current_mtd_partnum
                0x33fc5ce0                mtdids
                0x33fc5ac0                devices
 .bss           0x33fc5d6c        0x0 common/libcommon.a(cmd_nand.o)
 .bss           0x33fc5d6c        0x0 common/libcommon.a(cmd_net.o)
 .bss           0x33fc5d6c        0x0 common/libcommon.a(cmd_nvedit.o)
 .bss           0x33fc5d6c        0x0 common/libcommon.a(cmd_reginfo.o)
 .bss           0x33fc5d6c        0x0 common/libcommon.a(cmd_source.o)
 .bss           0x33fc5d6c        0x0 common/libcommon.a(cmd_usb.o)
 .bss           0x33fc5d6c        0x4 common/libcommon.a(cmd_usbslave.o)
                0x33fc5d6c                g_dwDownloadLen
 .bss           0x33fc5d70        0x0 common/libcommon.a(cmd_ximg.o)
 .bss           0x33fc5d70      0x300 common/libcommon.a(command.o)
 .bss           0x33fc6070        0x8 common/libcommon.a(console.o)
 .bss           0x33fc6078       0x44 common/libcommon.a(dlmalloc.o)
                0x33fc6080                mem_malloc_end
                0x33fc607c                mem_malloc_start
                0x33fc6078                mem_malloc_brk
 .bss           0x33fc60bc        0x0 common/libcommon.a(env_common.o)
 .bss           0x33fc60bc        0x4 common/libcommon.a(env_nand.o)
                0x33fc60bc                env_ptr
 .bss           0x33fc60c0        0x0 common/libcommon.a(exports.o)
 .bss           0x33fc60c0        0x0 common/libcommon.a(flash.o)
 .bss           0x33fc60c0      0x258 common/libcommon.a(hush.o)
                0x33fc6314                nesting_level
                0x33fc630c                last_return_code
 .bss           0x33fc6318        0x0 common/libcommon.a(image.o)
 .bss           0x33fc6318     0x1560 common/libcommon.a(main.o)
                0x33fc7778                console_buffer
                0x33fc7728                hist_list
                0x33fc6328                hist_lines
                0x33fc6324                hist_num
 .bss           0x33fc7878        0x0 common/libcommon.a(s_record.o)
 .bss           0x33fc7878       0x48 common/libcommon.a(stdio.o)
                0x33fc78b4                stdio_devices
 .bss           0x33fc78c0     0xda1c common/libcommon.a(usb.o)
                0x33fd52cc                usb_started
 .bss           0x33fd52dc      0x5b8 common/libcommon.a(usb_storage.o)
 .bss           0x33fd5894      0x43c common/libcommon.a(xyzModem.o)
 .bss           0x33fd5cd0        0x0 board/tekkamanninja/mini2440/libmini2440.a(mini2440.o)
 .bss           0x33fd5cd0       0xac board/tekkamanninja/mini2440/libmini2440.a(flash.o)
                0x33fd5cd0                flash_info
 .bss           0x33fd5d7c        0x0 lib_generic/libgeneric.a(crc16.o)
 .bss           0x33fd5d7c        0x0 lib_generic/libgeneric.a(crc32.o)
 .bss           0x33fd5d7c        0x0 lib_generic/libgeneric.a(ctype.o)
 .bss           0x33fd5d7c        0x0 lib_generic/libgeneric.a(display_options.o)
 .bss           0x33fd5d7c        0x0 lib_generic/libgeneric.a(gunzip.o)
 .bss           0x33fd5d7c        0x0 lib_generic/libgeneric.a(lmb.o)
 .bss           0x33fd5d7c        0x4 lib_generic/libgeneric.a(string.o)
                0x33fd5d7c                ___strtok
 .bss           0x33fd5d80        0x0 lib_generic/libgeneric.a(vsprintf.o)
 .bss           0x33fd5d80        0x0 lib_generic/libgeneric.a(zlib.o)
 .bss           0x33fd5d80        0x0 lib_generic/libgeneric.a(div64.o)
 .bss           0x33fd5d80        0x0 cpu/arm920t/s3c24x0/libs3c24x0.a(interrupts.o)
 .bss           0x33fd5d80        0x0 cpu/arm920t/s3c24x0/libs3c24x0.a(speed.o)
 .bss           0x33fd5d80       0x10 cpu/arm920t/s3c24x0/libs3c24x0.a(timer.o)
                0x33fd5d88                timer_load_val
 *fill*         0x33fd5d90       0x70 00
 .bss           0x33fd5e00     0x1500 cpu/arm920t/s3c24x0/libs3c24x0.a(usb_ohci.o)
                0x33fd72e8                got_rhsc
                0x33fd62a0                gtd
                0x33fd6100                ohci_dev
                0x33fd72e4                devgone
                0x33fd72e0                urb_finished
                0x33fd5e00                ptd
                0x33fd5fa4                phcca
                0x33fd5ed0                urb_priv
                0x33fd6000                ghcca
 .bss           0x33fd7300      0x2a8 cpu/arm920t/s3c24x0/libs3c24x0.a(mmc.o)
 .bss           0x33fd75a8        0x4 lib_arm/libarm.a(bootm.o)
 .bss           0x33fd75ac        0x0 lib_arm/libarm.a(cache.o)
 .bss           0x33fd75ac        0x0 lib_arm/libarm.a(cache-cp15.o)
 .bss           0x33fd75ac        0x0 lib_arm/libarm.a(reset.o)
 .bss           0x33fd75ac    0x30008 fs/fat/libfat.a(fat.o)
                0x33fd75b4                get_vfatname_block
                0x33ff75b4                get_dentfromdir_block
                0x33fe75b4                do_fat_read_block
 .bss           0x340075b4        0x8 fs/jffs2/libjffs2.a(jffs2_1pass.o)
 .bss           0x340075bc        0x0 fs/jffs2/libjffs2.a(compr_rtime.o)
 .bss           0x340075bc        0x0 fs/jffs2/libjffs2.a(compr_rubin.o)
 .bss           0x340075bc        0x0 fs/jffs2/libjffs2.a(compr_zlib.o)
 .bss           0x340075bc        0x0 fs/jffs2/libjffs2.a(mini_inflate.o)
 .bss           0x340075bc        0x0 disk/libdisk.a(part.o)
 .bss           0x340075bc        0x0 disk/libdisk.a(part_dos.o)
 .bss           0x340075bc       0x80 drivers/mtd/libmtd.a(mtdcore.o)
                0x340075bc                mtd_table
 .bss           0x3400763c        0x0 drivers/mtd/nand/libnand.a(nand_util.o)
 .bss           0x3400763c       0xe0 drivers/net/libnet.a(dm9000x.o)
 .bss           0x3400771c        0x0 drivers/rtc/librtc.a(date.o)
 .bss           0x3400771c        0x0 drivers/rtc/librtc.a(s3c24x0_rtc.o)
 .bss           0x3400771c       0x20 drivers/video/libvideo.a(cfb_console.o)
 .bss           0x3400773c       0x90 drivers/video/libvideo.a(s3c2410_fb.o)
                0x3400773c                smi
 .bss           0x340077cc        0x0 drivers/video/libvideo.a(videomodes.o)
 .bss           0x340077cc        0x0 cpu/arm920t/libarm920t.a(cpu.o)
 .bss           0x340077cc        0x0 /home/bamboo/work/ok2440/u-boot_for_ok2440/lib_arm/eabi_compat.o
 .bss           0x340077cc        0x0 /home/bamboo/work/ok2440/cross_tools/4.3.2/bin/../lib/gcc/arm-none-linux-gnueabi/4.3.2/armv4t/libgcc.a(_udivsi3.o)
 .bss           0x340077cc        0x0 /home/bamboo/work/ok2440/cross_tools/4.3.2/bin/../lib/gcc/arm-none-linux-gnueabi/4.3.2/armv4t/libgcc.a(_divsi3.o)
 .bss           0x340077cc        0x0 /home/bamboo/work/ok2440/cross_tools/4.3.2/bin/../lib/gcc/arm-none-linux-gnueabi/4.3.2/armv4t/libgcc.a(_lshrdi3.o)
 .bss           0x340077cc        0x0 /home/bamboo/work/ok2440/cross_tools/4.3.2/bin/../lib/gcc/arm-none-linux-gnueabi/4.3.2/armv4t/libgcc.a(_ashrdi3.o)
 .bss           0x340077cc        0x0 /home/bamboo/work/ok2440/cross_tools/4.3.2/bin/../lib/gcc/arm-none-linux-gnueabi/4.3.2/armv4t/libgcc.a(_ashldi3.o)
 .bss           0x340077cc        0x0 /home/bamboo/work/ok2440/cross_tools/4.3.2/bin/../lib/gcc/arm-none-linux-gnueabi/4.3.2/armv4t/libgcc.a(_dvmd_lnx.o)
                0x340077cc                . = ALIGN (0x4)
                0x340077cc                _end = .
Address of section .text set to 0x33f80000
LOAD cpu/arm920t/start.o
START GROUP
LOAD lib_generic/libgeneric.a
LOAD lib_generic/lzma/liblzma.a
LOAD lib_generic/lzo/liblzo.a
LOAD cpu/arm920t/libarm920t.a
LOAD cpu/arm920t/s3c24x0/libs3c24x0.a
LOAD lib_arm/libarm.a
LOAD fs/cramfs/libcramfs.a
LOAD fs/fat/libfat.a
LOAD fs/fdos/libfdos.a
LOAD fs/jffs2/libjffs2.a
LOAD fs/reiserfs/libreiserfs.a
LOAD fs/ext2/libext2fs.a
LOAD fs/yaffs2/libyaffs2.a
LOAD fs/ubifs/libubifs.a
LOAD net/libnet.a
LOAD disk/libdisk.a
LOAD drivers/bios_emulator/libatibiosemu.a
LOAD drivers/block/libblock.a
LOAD drivers/dma/libdma.a
LOAD drivers/fpga/libfpga.a
LOAD drivers/gpio/libgpio.a
LOAD drivers/hwmon/libhwmon.a
LOAD drivers/i2c/libi2c.a
LOAD drivers/input/libinput.a
LOAD drivers/misc/libmisc.a
LOAD drivers/mmc/libmmc.a
LOAD drivers/mtd/libmtd.a
LOAD drivers/mtd/nand/libnand.a
LOAD drivers/mtd/onenand/libonenand.a
LOAD drivers/mtd/ubi/libubi.a
LOAD drivers/mtd/spi/libspi_flash.a
LOAD drivers/net/libnet.a
LOAD drivers/net/phy/libphy.a
LOAD drivers/net/sk98lin/libsk98lin.a
LOAD drivers/pci/libpci.a
LOAD drivers/pcmcia/libpcmcia.a
LOAD drivers/power/libpower.a
LOAD drivers/spi/libspi.a
LOAD drivers/rtc/librtc.a
LOAD drivers/serial/libserial.a
LOAD drivers/twserial/libtws.a
LOAD drivers/usb/gadget/libusb_gadget.a
LOAD drivers/usb/host/libusb_host.a
LOAD drivers/usb/musb/libusb_musb.a
LOAD drivers/usb/slave/libusb_slave.a
LOAD drivers/video/libvideo.a
LOAD drivers/watchdog/libwatchdog.a
LOAD common/libcommon.a
LOAD libfdt/libfdt.a
LOAD api/libapi.a
LOAD post/libpost.a
LOAD board/tekkamanninja/mini2440/libmini2440.a
END GROUP
LOAD /home/bamboo/work/ok2440/u-boot_for_ok2440/lib_arm/eabi_compat.o
LOAD /home/bamboo/work/ok2440/cross_tools/4.3.2/bin/../lib/gcc/arm-none-linux-gnueabi/4.3.2/armv4t/libgcc.a
OUTPUT(u-boot elf32-littlearm)

.ARM.attributes
                0x00000000       0x26
 .ARM.attributes
                0x00000000       0x17 cpu/arm920t/start.o
 .ARM.attributes
                0x00000017       0x17 board/tekkamanninja/mini2440/lowlevel_init.o
 .ARM.attributes
                0x0000002e       0x27 board/tekkamanninja/mini2440/nand_read.o
 .ARM.attributes
                0x00000055       0x27 lib_arm/libarm.a(board.o)
 .ARM.attributes
                0x0000007c       0x27 lib_arm/libarm.a(interrupts.o)
 .ARM.attributes
                0x000000a3       0x27 net/libnet.a(eth.o)
 .ARM.attributes
                0x000000ca       0x27 net/libnet.a(net.o)
 .ARM.attributes
                0x000000f1       0x27 net/libnet.a(nfs.o)
 .ARM.attributes
                0x00000118       0x27 net/libnet.a(rarp.o)
 .ARM.attributes
                0x0000013f       0x27 net/libnet.a(tftp.o)
 .ARM.attributes
                0x00000166       0x27 net/libnet.a(bootp.o)
 .ARM.attributes
                0x0000018d       0x27 drivers/i2c/libi2c.a(s3c24x0_i2c.o)
 .ARM.attributes
                0x000001b4       0x27 drivers/mtd/nand/libnand.a(nand.o)
 .ARM.attributes
                0x000001db       0x27 drivers/mtd/nand/libnand.a(nand_base.o)
 .ARM.attributes
                0x00000202       0x27 drivers/mtd/nand/libnand.a(nand_bbt.o)
 .ARM.attributes
                0x00000229       0x27 drivers/mtd/nand/libnand.a(nand_ecc.o)
 .ARM.attributes
                0x00000250       0x25 drivers/mtd/nand/libnand.a(nand_ids.o)
 .ARM.attributes
                0x00000275       0x27 drivers/mtd/nand/libnand.a(s3c2410_nand.o)
 .ARM.attributes
                0x0000029c       0x27 drivers/serial/libserial.a(serial_s3c24x0.o)
 .ARM.attributes
                0x000002c3       0x27 drivers/usb/slave/libusb_slave.a(usbinit.o)
 .ARM.attributes
                0x000002ea       0x27 drivers/usb/slave/libusb_slave.a(interrupt.o)
 .ARM.attributes
                0x00000311       0x27 drivers/usb/slave/libusb_slave.a(usblib.o)
 .ARM.attributes
                0x00000338       0x27 drivers/usb/slave/libusb_slave.a(usbmain.o)
 .ARM.attributes
                0x0000035f       0x27 drivers/usb/slave/libusb_slave.a(usbout.o)
 .ARM.attributes
                0x00000386       0x27 drivers/usb/slave/libusb_slave.a(usbsetup.o)
 .ARM.attributes
                0x000003ad       0x27 drivers/usb/slave/libusb_slave.a(usbin.o)
 .ARM.attributes
                0x000003d4       0x27 common/libcommon.a(cmd_bdinfo.o)
 .ARM.attributes
                0x000003fb       0x27 common/libcommon.a(cmd_bmp.o)
 .ARM.attributes
                0x00000422       0x27 common/libcommon.a(cmd_boot.o)
 .ARM.attributes
                0x00000449       0x27 common/libcommon.a(cmd_bootm.o)
 .ARM.attributes
                0x00000470       0x27 common/libcommon.a(cmd_cache.o)
 .ARM.attributes
                0x00000497       0x27 common/libcommon.a(cmd_console.o)
 .ARM.attributes
                0x000004be       0x27 common/libcommon.a(cmd_date.o)
 .ARM.attributes
                0x000004e5       0x27 common/libcommon.a(cmd_eeprom.o)
 .ARM.attributes
                0x0000050c       0x27 common/libcommon.a(cmd_elf.o)
 .ARM.attributes
                0x00000533       0x27 common/libcommon.a(cmd_fat.o)
 .ARM.attributes
                0x0000055a       0x27 common/libcommon.a(cmd_flash.o)
 .ARM.attributes
                0x00000581       0x27 common/libcommon.a(cmd_i2c.o)
 .ARM.attributes
                0x000005a8       0x27 common/libcommon.a(cmd_itest.o)
 .ARM.attributes
                0x000005cf       0x27 common/libcommon.a(cmd_jffs2.o)
 .ARM.attributes
                0x000005f6       0x27 common/libcommon.a(cmd_load.o)
 .ARM.attributes
                0x0000061d       0x27 common/libcommon.a(cmd_mem.o)
 .ARM.attributes
                0x00000644       0x27 common/libcommon.a(cmd_misc.o)
 .ARM.attributes
                0x0000066b       0x27 common/libcommon.a(cmd_mmc.o)
 .ARM.attributes
                0x00000692       0x27 common/libcommon.a(cmd_mtdparts.o)
 .ARM.attributes
                0x000006b9       0x27 common/libcommon.a(cmd_nand.o)
 .ARM.attributes
                0x000006e0       0x27 common/libcommon.a(cmd_net.o)
 .ARM.attributes
                0x00000707       0x27 common/libcommon.a(cmd_nvedit.o)
 .ARM.attributes
                0x0000072e       0x27 common/libcommon.a(cmd_reginfo.o)
 .ARM.attributes
                0x00000755       0x27 common/libcommon.a(cmd_source.o)
 .ARM.attributes
                0x0000077c       0x27 common/libcommon.a(cmd_usb.o)
 .ARM.attributes
                0x000007a3       0x27 common/libcommon.a(cmd_usbslave.o)
 .ARM.attributes
                0x000007ca       0x27 common/libcommon.a(cmd_ximg.o)
 .ARM.attributes
                0x000007f1       0x27 common/libcommon.a(command.o)
 .ARM.attributes
                0x00000818       0x27 common/libcommon.a(console.o)
 .ARM.attributes
                0x0000083f       0x27 common/libcommon.a(dlmalloc.o)
 .ARM.attributes
                0x00000866       0x27 common/libcommon.a(env_common.o)
 .ARM.attributes
                0x0000088d       0x27 common/libcommon.a(env_nand.o)
 .ARM.attributes
                0x000008b4       0x27 common/libcommon.a(exports.o)
 .ARM.attributes
                0x000008db       0x27 common/libcommon.a(flash.o)
 .ARM.attributes
                0x00000902       0x27 common/libcommon.a(hush.o)
 .ARM.attributes
                0x00000929       0x27 common/libcommon.a(image.o)
 .ARM.attributes
                0x00000950       0x27 common/libcommon.a(main.o)
 .ARM.attributes
                0x00000977       0x27 common/libcommon.a(s_record.o)
 .ARM.attributes
                0x0000099e       0x27 common/libcommon.a(stdio.o)
 .ARM.attributes
                0x000009c5       0x27 common/libcommon.a(usb.o)
 .ARM.attributes
                0x000009ec       0x27 common/libcommon.a(usb_storage.o)
 .ARM.attributes
                0x00000a13       0x27 common/libcommon.a(xyzModem.o)
 .ARM.attributes
                0x00000a3a       0x27 board/tekkamanninja/mini2440/libmini2440.a(mini2440.o)
 .ARM.attributes
                0x00000a61       0x27 board/tekkamanninja/mini2440/libmini2440.a(flash.o)
 .ARM.attributes
                0x00000a88       0x27 lib_generic/libgeneric.a(crc16.o)
 .ARM.attributes
                0x00000aaf       0x27 lib_generic/libgeneric.a(crc32.o)
 .ARM.attributes
                0x00000ad6       0x25 lib_generic/libgeneric.a(ctype.o)
 .ARM.attributes
                0x00000afb       0x27 lib_generic/libgeneric.a(display_options.o)
 .ARM.attributes
                0x00000b22       0x27 lib_generic/libgeneric.a(gunzip.o)
 .ARM.attributes
                0x00000b49       0x27 lib_generic/libgeneric.a(lmb.o)
 .ARM.attributes
                0x00000b70       0x27 lib_generic/libgeneric.a(string.o)
 .ARM.attributes
                0x00000b97       0x27 lib_generic/libgeneric.a(vsprintf.o)
 .ARM.attributes
                0x00000bbe       0x27 lib_generic/libgeneric.a(zlib.o)
 .ARM.attributes
                0x00000be5       0x27 lib_generic/libgeneric.a(div64.o)
 .ARM.attributes
                0x00000c0c       0x27 cpu/arm920t/s3c24x0/libs3c24x0.a(interrupts.o)
 .ARM.attributes
                0x00000c33       0x27 cpu/arm920t/s3c24x0/libs3c24x0.a(speed.o)
 .ARM.attributes
                0x00000c5a       0x27 cpu/arm920t/s3c24x0/libs3c24x0.a(timer.o)
 .ARM.attributes
                0x00000c81       0x27 cpu/arm920t/s3c24x0/libs3c24x0.a(usb_ohci.o)
 .ARM.attributes
                0x00000ca8       0x27 cpu/arm920t/s3c24x0/libs3c24x0.a(mmc.o)
 .ARM.attributes
                0x00000ccf       0x27 lib_arm/libarm.a(bootm.o)
 .ARM.attributes
                0x00000cf6       0x27 lib_arm/libarm.a(cache.o)
 .ARM.attributes
                0x00000d1d       0x27 lib_arm/libarm.a(cache-cp15.o)
 .ARM.attributes
                0x00000d44       0x27 lib_arm/libarm.a(reset.o)
 .ARM.attributes
                0x00000d6b       0x27 fs/fat/libfat.a(fat.o)
 .ARM.attributes
                0x00000d92       0x27 fs/jffs2/libjffs2.a(jffs2_1pass.o)
 .ARM.attributes
                0x00000db9       0x27 fs/jffs2/libjffs2.a(compr_rtime.o)
 .ARM.attributes
                0x00000de0       0x27 fs/jffs2/libjffs2.a(compr_rubin.o)
 .ARM.attributes
                0x00000e07       0x27 fs/jffs2/libjffs2.a(compr_zlib.o)
 .ARM.attributes
                0x00000e2e       0x27 fs/jffs2/libjffs2.a(mini_inflate.o)
 .ARM.attributes
                0x00000e55       0x27 disk/libdisk.a(part.o)
 .ARM.attributes
                0x00000e7c       0x27 disk/libdisk.a(part_dos.o)
 .ARM.attributes
                0x00000ea3       0x27 drivers/mtd/libmtd.a(mtdcore.o)
 .ARM.attributes
                0x00000eca       0x27 drivers/mtd/nand/libnand.a(nand_util.o)
 .ARM.attributes
                0x00000ef1       0x27 drivers/net/libnet.a(dm9000x.o)
 .ARM.attributes
                0x00000f18       0x27 drivers/rtc/librtc.a(date.o)
 .ARM.attributes
                0x00000f3f       0x27 drivers/rtc/librtc.a(s3c24x0_rtc.o)
 .ARM.attributes
                0x00000f66       0x27 drivers/video/libvideo.a(cfb_console.o)
 .ARM.attributes
                0x00000f8d       0x27 drivers/video/libvideo.a(s3c2410_fb.o)
 .ARM.attributes
                0x00000fb4       0x27 drivers/video/libvideo.a(videomodes.o)
 .ARM.attributes
                0x00000fdb       0x27 cpu/arm920t/libarm920t.a(cpu.o)
 .ARM.attributes
                0x00001002       0x27 /home/bamboo/work/ok2440/u-boot_for_ok2440/lib_arm/eabi_compat.o
 .ARM.attributes
                0x00001029       0x18 /home/bamboo/work/ok2440/cross_tools/4.3.2/bin/../lib/gcc/arm-none-linux-gnueabi/4.3.2/armv4t/libgcc.a(_udivsi3.o)
 .ARM.attributes
                0x00001041       0x18 /home/bamboo/work/ok2440/cross_tools/4.3.2/bin/../lib/gcc/arm-none-linux-gnueabi/4.3.2/armv4t/libgcc.a(_divsi3.o)
 .ARM.attributes
                0x00001059       0x18 /home/bamboo/work/ok2440/cross_tools/4.3.2/bin/../lib/gcc/arm-none-linux-gnueabi/4.3.2/armv4t/libgcc.a(_lshrdi3.o)
 .ARM.attributes
                0x00001071       0x18 /home/bamboo/work/ok2440/cross_tools/4.3.2/bin/../lib/gcc/arm-none-linux-gnueabi/4.3.2/armv4t/libgcc.a(_ashrdi3.o)
 .ARM.attributes
                0x00001089       0x18 /home/bamboo/work/ok2440/cross_tools/4.3.2/bin/../lib/gcc/arm-none-linux-gnueabi/4.3.2/armv4t/libgcc.a(_ashldi3.o)
 .ARM.attributes
                0x000010a1       0x18 /home/bamboo/work/ok2440/cross_tools/4.3.2/bin/../lib/gcc/arm-none-linux-gnueabi/4.3.2/armv4t/libgcc.a(_dvmd_lnx.o)

.debug_line     0x00000000     0xd6f8
 .debug_line    0x00000000       0xf7 cpu/arm920t/start.o
 .debug_line    0x000000f7       0x4b board/tekkamanninja/mini2440/lowlevel_init.o
 .debug_line    0x00000142       0xc5 board/tekkamanninja/mini2440/nand_read.o
 .debug_line    0x00000207      0x1b0 lib_arm/libarm.a(board.o)
 .debug_line    0x000003b7      0x18a lib_arm/libarm.a(interrupts.o)
 .debug_line    0x00000541      0x21d net/libnet.a(eth.o)
 .debug_line    0x0000075e      0x4b4 net/libnet.a(net.o)
 .debug_line    0x00000c12      0x33f net/libnet.a(nfs.o)
 .debug_line    0x00000f51      0x100 net/libnet.a(rarp.o)
 .debug_line    0x00001051      0x273 net/libnet.a(tftp.o)
 .debug_line    0x000012c4      0x30b net/libnet.a(bootp.o)
 .debug_line    0x000015cf      0x1db drivers/i2c/libi2c.a(s3c24x0_i2c.o)
 .debug_line    0x000017aa      0x1c1 drivers/mtd/nand/libnand.a(nand.o)
 .debug_line    0x0000196b      0x96b drivers/mtd/nand/libnand.a(nand_base.o)
 .debug_line    0x000022d6      0x480 drivers/mtd/nand/libnand.a(nand_bbt.o)
 .debug_line    0x00002756      0x1cd drivers/mtd/nand/libnand.a(nand_ecc.o)
 .debug_line    0x00002923       0x72 drivers/mtd/nand/libnand.a(nand_ids.o)
 .debug_line    0x00002995      0x1c7 drivers/mtd/nand/libnand.a(s3c2410_nand.o)
 .debug_line    0x00002b5c      0x186 drivers/serial/libserial.a(serial_s3c24x0.o)
 .debug_line    0x00002ce2      0x1ae drivers/usb/slave/libusb_slave.a(usbinit.o)
 .debug_line    0x00002e90       0xe1 drivers/usb/slave/libusb_slave.a(interrupt.o)
 .debug_line    0x00002f71      0x14d drivers/usb/slave/libusb_slave.a(usblib.o)
 .debug_line    0x000030be       0xc2 drivers/usb/slave/libusb_slave.a(usbmain.o)
 .debug_line    0x00003180       0xfc drivers/usb/slave/libusb_slave.a(usbout.o)
 .debug_line    0x0000327c      0x207 drivers/usb/slave/libusb_slave.a(usbsetup.o)
 .debug_line    0x00003483       0x99 drivers/usb/slave/libusb_slave.a(usbin.o)
 .debug_line    0x0000351c      0x134 common/libcommon.a(cmd_bdinfo.o)
 .debug_line    0x00003650      0x174 common/libcommon.a(cmd_bmp.o)
 .debug_line    0x000037c4       0xcd common/libcommon.a(cmd_boot.o)
 .debug_line    0x00003891      0x403 common/libcommon.a(cmd_bootm.o)
 .debug_line    0x00003c94       0x9b common/libcommon.a(cmd_cache.o)
 .debug_line    0x00003d2f       0xe5 common/libcommon.a(cmd_console.o)
 .debug_line    0x00003e14      0x17b common/libcommon.a(cmd_date.o)
 .debug_line    0x00003f8f      0x144 common/libcommon.a(cmd_eeprom.o)
 .debug_line    0x000040d3      0x1c3 common/libcommon.a(cmd_elf.o)
 .debug_line    0x00004296      0x133 common/libcommon.a(cmd_fat.o)
 .debug_line    0x000043c9      0x2f1 common/libcommon.a(cmd_flash.o)
 .debug_line    0x000046ba      0x31b common/libcommon.a(cmd_i2c.o)
 .debug_line    0x000049d5      0x10c common/libcommon.a(cmd_itest.o)
 .debug_line    0x00004ae1      0x1b6 common/libcommon.a(cmd_jffs2.o)
 .debug_line    0x00004c97      0x3ab common/libcommon.a(cmd_load.o)
 .debug_line    0x00005042      0x25e common/libcommon.a(cmd_mem.o)
 .debug_line    0x000052a0       0xcd common/libcommon.a(cmd_misc.o)
 .debug_line    0x0000536d       0x95 common/libcommon.a(cmd_mmc.o)
 .debug_line    0x00005402      0x649 common/libcommon.a(cmd_mtdparts.o)
 .debug_line    0x00005a4b      0x406 common/libcommon.a(cmd_nand.o)
 .debug_line    0x00005e51      0x152 common/libcommon.a(cmd_net.o)
 .debug_line    0x00005fa3      0x2d1 common/libcommon.a(cmd_nvedit.o)
 .debug_line    0x00006274       0x81 common/libcommon.a(cmd_reginfo.o)
 .debug_line    0x000062f5      0x1a5 common/libcommon.a(cmd_source.o)
 .debug_line    0x0000649a      0x373 common/libcommon.a(cmd_usb.o)
 .debug_line    0x0000680d      0x152 common/libcommon.a(cmd_usbslave.o)
 .debug_line    0x0000695f      0x1a9 common/libcommon.a(cmd_ximg.o)
 .debug_line    0x00006b08      0x23b common/libcommon.a(command.o)
 .debug_line    0x00006d43      0x2c9 common/libcommon.a(console.o)
 .debug_line    0x0000700c      0x378 common/libcommon.a(dlmalloc.o)
 .debug_line    0x00007384      0x196 common/libcommon.a(env_common.o)
 .debug_line    0x0000751a      0x221 common/libcommon.a(env_nand.o)
 .debug_line    0x0000773b      0x13d common/libcommon.a(exports.o)
 .debug_line    0x00007878      0x136 common/libcommon.a(flash.o)
 .debug_line    0x000079ae      0x5ba common/libcommon.a(hush.o)
 .debug_line    0x00007f68      0x363 common/libcommon.a(image.o)
 .debug_line    0x000082cb      0x342 common/libcommon.a(main.o)
 .debug_line    0x0000860d       0xdb common/libcommon.a(s_record.o)
 .debug_line    0x000086e8      0x1a9 common/libcommon.a(stdio.o)
 .debug_line    0x00008891      0x3f6 common/libcommon.a(usb.o)
 .debug_line    0x00008c87      0x468 common/libcommon.a(usb_storage.o)
 .debug_line    0x000090ef      0x1fb common/libcommon.a(xyzModem.o)
 .debug_line    0x000092ea      0x183 board/tekkamanninja/mini2440/libmini2440.a(mini2440.o)
 .debug_line    0x0000946d      0x1c7 board/tekkamanninja/mini2440/libmini2440.a(flash.o)
 .debug_line    0x00009634       0xe4 lib_generic/libgeneric.a(crc16.o)
 .debug_line    0x00009718      0x12c lib_generic/libgeneric.a(crc32.o)
 .debug_line    0x00009844       0x28 lib_generic/libgeneric.a(ctype.o)
 .debug_line    0x0000986c      0x12a lib_generic/libgeneric.a(display_options.o)
 .debug_line    0x00009996       0xcd lib_generic/libgeneric.a(gunzip.o)
 .debug_line    0x00009a63      0x20b lib_generic/libgeneric.a(lmb.o)
 .debug_line    0x00009c6e      0x1fa lib_generic/libgeneric.a(string.o)
 .debug_line    0x00009e68      0x328 lib_generic/libgeneric.a(vsprintf.o)
 .debug_line    0x0000a190      0x59f lib_generic/libgeneric.a(zlib.o)
 .debug_line    0x0000a72f       0xdb lib_generic/libgeneric.a(div64.o)
 .debug_line    0x0000a80a      0x15b cpu/arm920t/s3c24x0/libs3c24x0.a(interrupts.o)
 .debug_line    0x0000a965       0xfd cpu/arm920t/s3c24x0/libs3c24x0.a(speed.o)
 .debug_line    0x0000aa62      0x136 cpu/arm920t/s3c24x0/libs3c24x0.a(timer.o)
 .debug_line    0x0000ab98      0x43d cpu/arm920t/s3c24x0/libs3c24x0.a(usb_ohci.o)
 .debug_line    0x0000afd5      0x2f9 cpu/arm920t/s3c24x0/libs3c24x0.a(mmc.o)
 .debug_line    0x0000b2ce      0x194 lib_arm/libarm.a(bootm.o)
 .debug_line    0x0000b462       0x38 lib_arm/libarm.a(cache.o)
 .debug_line    0x0000b49a      0x105 lib_arm/libarm.a(cache-cp15.o)
 .debug_line    0x0000b59f       0x7c lib_arm/libarm.a(reset.o)
 .debug_line    0x0000b61b      0x3ad fs/fat/libfat.a(fat.o)
 .debug_line    0x0000b9c8      0x606 fs/jffs2/libjffs2.a(jffs2_1pass.o)
 .debug_line    0x0000bfce       0xa0 fs/jffs2/libjffs2.a(compr_rtime.o)
 .debug_line    0x0000c06e       0xd4 fs/jffs2/libjffs2.a(compr_rubin.o)
 .debug_line    0x0000c142       0x81 fs/jffs2/libjffs2.a(compr_zlib.o)
 .debug_line    0x0000c1c3      0x207 fs/jffs2/libjffs2.a(mini_inflate.o)
 .debug_line    0x0000c3ca      0x1a2 disk/libdisk.a(part.o)
 .debug_line    0x0000c56c      0x15b disk/libdisk.a(part_dos.o)
 .debug_line    0x0000c6c7      0x1a8 drivers/mtd/libmtd.a(mtdcore.o)
 .debug_line    0x0000c86f      0x2dd drivers/mtd/nand/libnand.a(nand_util.o)
 .debug_line    0x0000cb4c      0x222 drivers/net/libnet.a(dm9000x.o)
 .debug_line    0x0000cd6e       0xb8 drivers/rtc/librtc.a(date.o)
 .debug_line    0x0000ce26      0x153 drivers/rtc/librtc.a(s3c24x0_rtc.o)
 .debug_line    0x0000cf79      0x575 drivers/video/libvideo.a(cfb_console.o)
 .debug_line    0x0000d4ee       0xf5 drivers/video/libvideo.a(s3c2410_fb.o)
 .debug_line    0x0000d5e3       0x98 drivers/video/libvideo.a(videomodes.o)
 .debug_line    0x0000d67b       0x3e cpu/arm920t/libarm920t.a(cpu.o)
 .debug_line    0x0000d6b9       0x3f /home/bamboo/work/ok2440/u-boot_for_ok2440/lib_arm/eabi_compat.o

.debug_info     0x00000000    0x3b3bf
 .debug_info    0x00000000       0x68 cpu/arm920t/start.o
 .debug_info    0x00000068       0x81 board/tekkamanninja/mini2440/lowlevel_init.o
 .debug_info    0x000000e9      0x277 board/tekkamanninja/mini2440/nand_read.o
 .debug_info    0x00000360      0x74f lib_arm/libarm.a(board.o)
 .debug_info    0x00000aaf      0x411 lib_arm/libarm.a(interrupts.o)
 .debug_info    0x00000ec0      0x866 net/libnet.a(eth.o)
 .debug_info    0x00001726     0x1443 net/libnet.a(net.o)
 .debug_info    0x00002b69      0xb46 net/libnet.a(nfs.o)
 .debug_info    0x000036af      0x255 net/libnet.a(rarp.o)
 .debug_info    0x00003904      0x49e net/libnet.a(tftp.o)
 .debug_info    0x00003da2      0x99a net/libnet.a(bootp.o)
 .debug_info    0x0000473c      0x7e1 drivers/i2c/libi2c.a(s3c24x0_i2c.o)
 .debug_info    0x00004f1d     0x129a drivers/mtd/nand/libnand.a(nand.o)
 .debug_info    0x000061b7     0x33b8 drivers/mtd/nand/libnand.a(nand_base.o)
 .debug_info    0x0000956f     0x1fbb drivers/mtd/nand/libnand.a(nand_bbt.o)
 .debug_info    0x0000b52a      0x9ed drivers/mtd/nand/libnand.a(nand_ecc.o)
 .debug_info    0x0000bf17      0x152 drivers/mtd/nand/libnand.a(nand_ids.o)
 .debug_info    0x0000c069     0x1271 drivers/mtd/nand/libnand.a(s3c2410_nand.o)
 .debug_info    0x0000d2da      0x55f drivers/serial/libserial.a(serial_s3c24x0.o)
 .debug_info    0x0000d839      0x7b6 drivers/usb/slave/libusb_slave.a(usbinit.o)
 .debug_info    0x0000dfef      0x6a5 drivers/usb/slave/libusb_slave.a(interrupt.o)
 .debug_info    0x0000e694      0x8f4 drivers/usb/slave/libusb_slave.a(usblib.o)
 .debug_info    0x0000ef88      0x5de drivers/usb/slave/libusb_slave.a(usbmain.o)
 .debug_info    0x0000f566      0x768 drivers/usb/slave/libusb_slave.a(usbout.o)
 .debug_info    0x0000fcce      0xaf2 drivers/usb/slave/libusb_slave.a(usbsetup.o)
 .debug_info    0x000107c0      0x57e drivers/usb/slave/libusb_slave.a(usbin.o)
 .debug_info    0x00010d3e      0x3f3 common/libcommon.a(cmd_bdinfo.o)
 .debug_info    0x00011131      0x519 common/libcommon.a(cmd_bmp.o)
 .debug_info    0x0001164a      0x272 common/libcommon.a(cmd_boot.o)
 .debug_info    0x000118bc     0x14cb common/libcommon.a(cmd_bootm.o)
 .debug_info    0x00012d87      0x264 common/libcommon.a(cmd_cache.o)
 .debug_info    0x00012feb      0x393 common/libcommon.a(cmd_console.o)
 .debug_info    0x0001337e      0x529 common/libcommon.a(cmd_date.o)
 .debug_info    0x000138a7      0x446 common/libcommon.a(cmd_eeprom.o)
 .debug_info    0x00013ced      0x6de common/libcommon.a(cmd_elf.o)
 .debug_info    0x000143cb      0x534 common/libcommon.a(cmd_fat.o)
 .debug_info    0x000148ff      0xaa2 common/libcommon.a(cmd_flash.o)
 .debug_info    0x000153a1      0x813 common/libcommon.a(cmd_i2c.o)
 .debug_info    0x00015bb4      0x47a common/libcommon.a(cmd_itest.o)
 .debug_info    0x0001602e      0x5ea common/libcommon.a(cmd_jffs2.o)
 .debug_info    0x00016618      0xdbc common/libcommon.a(cmd_load.o)
 .debug_info    0x000173d4      0xb37 common/libcommon.a(cmd_mem.o)
 .debug_info    0x00017f0b      0x1e8 common/libcommon.a(cmd_misc.o)
 .debug_info    0x000180f3      0x1e3 common/libcommon.a(cmd_mmc.o)
 .debug_info    0x000182d6     0x1ebf common/libcommon.a(cmd_mtdparts.o)
 .debug_info    0x0001a195     0x19d7 common/libcommon.a(cmd_nand.o)
 .debug_info    0x0001bb6c      0x621 common/libcommon.a(cmd_net.o)
 .debug_info    0x0001c18d      0xa43 common/libcommon.a(cmd_nvedit.o)
 .debug_info    0x0001cbd0      0x1bb common/libcommon.a(cmd_reginfo.o)
 .debug_info    0x0001cd8b      0x4ab common/libcommon.a(cmd_source.o)
 .debug_info    0x0001d236      0xf49 common/libcommon.a(cmd_usb.o)
 .debug_info    0x0001e17f      0x28f common/libcommon.a(cmd_usbslave.o)
 .debug_info    0x0001e40e      0x468 common/libcommon.a(cmd_ximg.o)
 .debug_info    0x0001e876      0xc11 common/libcommon.a(command.o)
 .debug_info    0x0001f487      0xa49 common/libcommon.a(console.o)
 .debug_info    0x0001fed0      0xc3f common/libcommon.a(dlmalloc.o)
 .debug_info    0x00020b0f      0x472 common/libcommon.a(env_common.o)
 .debug_info    0x00020f81      0xd58 common/libcommon.a(env_nand.o)
 .debug_info    0x00021cd9      0x2dd common/libcommon.a(exports.o)
 .debug_info    0x00021fb6      0x31b common/libcommon.a(flash.o)
 .debug_info    0x000222d1     0x1830 common/libcommon.a(hush.o)
 .debug_info    0x00023b01     0x12ca common/libcommon.a(image.o)
 .debug_info    0x00024dcb      0xcdb common/libcommon.a(main.o)
 .debug_info    0x00025aa6      0x18b common/libcommon.a(s_record.o)
 .debug_info    0x00025c31      0x5d5 common/libcommon.a(stdio.o)
 .debug_info    0x00026206     0x171d common/libcommon.a(usb.o)
 .debug_info    0x00027923     0x146e common/libcommon.a(usb_storage.o)
 .debug_info    0x00028d91      0x672 common/libcommon.a(xyzModem.o)
 .debug_info    0x00029403      0xa0a board/tekkamanninja/mini2440/libmini2440.a(mini2440.o)
 .debug_info    0x00029e0d      0x400 board/tekkamanninja/mini2440/libmini2440.a(flash.o)
 .debug_info    0x0002a20d      0x10a lib_generic/libgeneric.a(crc16.o)
 .debug_info    0x0002a317      0x1da lib_generic/libgeneric.a(crc32.o)
 .debug_info    0x0002a4f1       0x52 lib_generic/libgeneric.a(ctype.o)
 .debug_info    0x0002a543      0x259 lib_generic/libgeneric.a(display_options.o)
 .debug_info    0x0002a79c      0x3f3 lib_generic/libgeneric.a(gunzip.o)
 .debug_info    0x0002ab8f      0x7e1 lib_generic/libgeneric.a(lmb.o)
 .debug_info    0x0002b370      0x8d0 lib_generic/libgeneric.a(string.o)
 .debug_info    0x0002bc40      0xa9c lib_generic/libgeneric.a(vsprintf.o)
 .debug_info    0x0002c6dc      0xfbb lib_generic/libgeneric.a(zlib.o)
 .debug_info    0x0002d697      0x12e lib_generic/libgeneric.a(div64.o)
 .debug_info    0x0002d7c5      0x1a6 cpu/arm920t/s3c24x0/libs3c24x0.a(interrupts.o)
 .debug_info    0x0002d96b      0x1ed cpu/arm920t/s3c24x0/libs3c24x0.a(speed.o)
 .debug_info    0x0002db58      0x3fe cpu/arm920t/s3c24x0/libs3c24x0.a(timer.o)
 .debug_info    0x0002df56     0x1f1b cpu/arm920t/s3c24x0/libs3c24x0.a(usb_ohci.o)
 .debug_info    0x0002fe71      0xe38 cpu/arm920t/s3c24x0/libs3c24x0.a(mmc.o)
 .debug_info    0x00030ca9      0xb0b lib_arm/libarm.a(bootm.o)
 .debug_info    0x000317b4       0xa4 lib_arm/libarm.a(cache.o)
 .debug_info    0x00031858      0x1e9 lib_arm/libarm.a(cache-cp15.o)
 .debug_info    0x00031a41      0x1ad lib_arm/libarm.a(reset.o)
 .debug_info    0x00031bee     0x1234 fs/fat/libfat.a(fat.o)
 .debug_info    0x00032e22     0x24e9 fs/jffs2/libjffs2.a(jffs2_1pass.o)
 .debug_info    0x0003530b      0x152 fs/jffs2/libjffs2.a(compr_rtime.o)
 .debug_info    0x0003545d      0x208 fs/jffs2/libjffs2.a(compr_rubin.o)
 .debug_info    0x00035665       0xdb fs/jffs2/libjffs2.a(compr_zlib.o)
 .debug_info    0x00035740      0x7c4 fs/jffs2/libjffs2.a(mini_inflate.o)
 .debug_info    0x00035f04      0x624 disk/libdisk.a(part.o)
 .debug_info    0x00036528      0x64b disk/libdisk.a(part_dos.o)
 .debug_info    0x00036b73      0x9a4 drivers/mtd/libmtd.a(mtdcore.o)
 .debug_info    0x00037517     0x1582 drivers/mtd/nand/libnand.a(nand_util.o)
 .debug_info    0x00038a99      0x966 drivers/net/libnet.a(dm9000x.o)
 .debug_info    0x000393ff      0x258 drivers/rtc/librtc.a(date.o)
 .debug_info    0x00039657      0x5fa drivers/rtc/librtc.a(s3c24x0_rtc.o)
 .debug_info    0x00039c51      0xe02 drivers/video/libvideo.a(cfb_console.o)
 .debug_info    0x0003aa53      0x500 drivers/video/libvideo.a(s3c2410_fb.o)
 .debug_info    0x0003af53      0x307 drivers/video/libvideo.a(videomodes.o)
 .debug_info    0x0003b25a       0xc6 cpu/arm920t/libarm920t.a(cpu.o)
 .debug_info    0x0003b320       0x9f /home/bamboo/work/ok2440/u-boot_for_ok2440/lib_arm/eabi_compat.o

.debug_abbrev   0x00000000     0xccbc
 .debug_abbrev  0x00000000       0x14 cpu/arm920t/start.o
 .debug_abbrev  0x00000014       0x14 board/tekkamanninja/mini2440/lowlevel_init.o
 .debug_abbrev  0x00000028      0x194 board/tekkamanninja/mini2440/nand_read.o
 .debug_abbrev  0x000001bc      0x20f lib_arm/libarm.a(board.o)
 .debug_abbrev  0x000003cb      0x175 lib_arm/libarm.a(interrupts.o)
 .debug_abbrev  0x00000540      0x316 net/libnet.a(eth.o)
 .debug_abbrev  0x00000856      0x43a net/libnet.a(net.o)
 .debug_abbrev  0x00000c90      0x2cb net/libnet.a(nfs.o)
 .debug_abbrev  0x00000f5b      0x111 net/libnet.a(rarp.o)
 .debug_abbrev  0x0000106c      0x1f1 net/libnet.a(tftp.o)
 .debug_abbrev  0x0000125d      0x31f net/libnet.a(bootp.o)
 .debug_abbrev  0x0000157c      0x1d9 drivers/i2c/libi2c.a(s3c24x0_i2c.o)
 .debug_abbrev  0x00001755      0x1e7 drivers/mtd/nand/libnand.a(nand.o)
 .debug_abbrev  0x0000193c      0x3f8 drivers/mtd/nand/libnand.a(nand_base.o)
 .debug_abbrev  0x00001d34      0x38b drivers/mtd/nand/libnand.a(nand_bbt.o)
 .debug_abbrev  0x000020bf      0x1c1 drivers/mtd/nand/libnand.a(nand_ecc.o)
 .debug_abbrev  0x00002280       0x8c drivers/mtd/nand/libnand.a(nand_ids.o)
 .debug_abbrev  0x0000230c      0x1d7 drivers/mtd/nand/libnand.a(s3c2410_nand.o)
 .debug_abbrev  0x000024e3      0x287 drivers/serial/libserial.a(serial_s3c24x0.o)
 .debug_abbrev  0x0000276a      0x1bc drivers/usb/slave/libusb_slave.a(usbinit.o)
 .debug_abbrev  0x00002926      0x179 drivers/usb/slave/libusb_slave.a(interrupt.o)
 .debug_abbrev  0x00002a9f      0x16b drivers/usb/slave/libusb_slave.a(usblib.o)
 .debug_abbrev  0x00002c0a      0x163 drivers/usb/slave/libusb_slave.a(usbmain.o)
 .debug_abbrev  0x00002d6d      0x175 drivers/usb/slave/libusb_slave.a(usbout.o)
 .debug_abbrev  0x00002ee2      0x166 drivers/usb/slave/libusb_slave.a(usbsetup.o)
 .debug_abbrev  0x00003048      0x131 drivers/usb/slave/libusb_slave.a(usbin.o)
 .debug_abbrev  0x00003179      0x198 common/libcommon.a(cmd_bdinfo.o)
 .debug_abbrev  0x00003311      0x199 common/libcommon.a(cmd_bmp.o)
 .debug_abbrev  0x000034aa       0xdf common/libcommon.a(cmd_boot.o)
 .debug_abbrev  0x00003589      0x3a8 common/libcommon.a(cmd_bootm.o)
 .debug_abbrev  0x00003931       0xee common/libcommon.a(cmd_cache.o)
 .debug_abbrev  0x00003a1f      0x185 common/libcommon.a(cmd_console.o)
 .debug_abbrev  0x00003ba4      0x19f common/libcommon.a(cmd_date.o)
 .debug_abbrev  0x00003d43      0x1a4 common/libcommon.a(cmd_eeprom.o)
 .debug_abbrev  0x00003ee7      0x1db common/libcommon.a(cmd_elf.o)
 .debug_abbrev  0x000040c2      0x128 common/libcommon.a(cmd_fat.o)
 .debug_abbrev  0x000041ea      0x202 common/libcommon.a(cmd_flash.o)
 .debug_abbrev  0x000043ec      0x1fb common/libcommon.a(cmd_i2c.o)
 .debug_abbrev  0x000045e7      0x1a0 common/libcommon.a(cmd_itest.o)
 .debug_abbrev  0x00004787      0x1ae common/libcommon.a(cmd_jffs2.o)
 .debug_abbrev  0x00004935      0x3c3 common/libcommon.a(cmd_load.o)
 .debug_abbrev  0x00004cf8      0x1c8 common/libcommon.a(cmd_mem.o)
 .debug_abbrev  0x00004ec0       0xd0 common/libcommon.a(cmd_misc.o)
 .debug_abbrev  0x00004f90       0xdf common/libcommon.a(cmd_mmc.o)
 .debug_abbrev  0x0000506f      0x410 common/libcommon.a(cmd_mtdparts.o)
 .debug_abbrev  0x0000547f      0x360 common/libcommon.a(cmd_nand.o)
 .debug_abbrev  0x000057df      0x1d0 common/libcommon.a(cmd_net.o)
 .debug_abbrev  0x000059af      0x272 common/libcommon.a(cmd_nvedit.o)
 .debug_abbrev  0x00005c21       0xd0 common/libcommon.a(cmd_reginfo.o)
 .debug_abbrev  0x00005cf1      0x1b4 common/libcommon.a(cmd_source.o)
 .debug_abbrev  0x00005ea5      0x2b8 common/libcommon.a(cmd_usb.o)
 .debug_abbrev  0x0000615d      0x123 common/libcommon.a(cmd_usbslave.o)
 .debug_abbrev  0x00006280      0x1a9 common/libcommon.a(cmd_ximg.o)
 .debug_abbrev  0x00006429      0x2d0 common/libcommon.a(command.o)
 .debug_abbrev  0x000066f9      0x37c common/libcommon.a(console.o)
 .debug_abbrev  0x00006a75      0x274 common/libcommon.a(dlmalloc.o)
 .debug_abbrev  0x00006ce9      0x20a common/libcommon.a(env_common.o)
 .debug_abbrev  0x00006ef3      0x2f5 common/libcommon.a(env_nand.o)
 .debug_abbrev  0x000071e8      0x121 common/libcommon.a(exports.o)
 .debug_abbrev  0x00007309      0x16f common/libcommon.a(flash.o)
 .debug_abbrev  0x00007478      0x3af common/libcommon.a(hush.o)
 .debug_abbrev  0x00007827      0x40e common/libcommon.a(image.o)
 .debug_abbrev  0x00007c35      0x32c common/libcommon.a(main.o)
 .debug_abbrev  0x00007f61       0xdb common/libcommon.a(s_record.o)
 .debug_abbrev  0x0000803c      0x21e common/libcommon.a(stdio.o)
 .debug_abbrev  0x0000825a      0x35d common/libcommon.a(usb.o)
 .debug_abbrev  0x000085b7      0x2f8 common/libcommon.a(usb_storage.o)
 .debug_abbrev  0x000088af      0x26d common/libcommon.a(xyzModem.o)
 .debug_abbrev  0x00008b1c      0x1bc board/tekkamanninja/mini2440/libmini2440.a(mini2440.o)
 .debug_abbrev  0x00008cd8      0x1f6 board/tekkamanninja/mini2440/libmini2440.a(flash.o)
 .debug_abbrev  0x00008ece       0xb7 lib_generic/libgeneric.a(crc16.o)
 .debug_abbrev  0x00008f85       0xce lib_generic/libgeneric.a(crc32.o)
 .debug_abbrev  0x00009053       0x4b lib_generic/libgeneric.a(ctype.o)
 .debug_abbrev  0x0000909e      0x11e lib_generic/libgeneric.a(display_options.o)
 .debug_abbrev  0x000091bc      0x135 lib_generic/libgeneric.a(gunzip.o)
 .debug_abbrev  0x000092f1      0x320 lib_generic/libgeneric.a(lmb.o)
 .debug_abbrev  0x00009611      0x1f4 lib_generic/libgeneric.a(string.o)
 .debug_abbrev  0x00009805      0x31b lib_generic/libgeneric.a(vsprintf.o)
 .debug_abbrev  0x00009b20      0x27a lib_generic/libgeneric.a(zlib.o)
 .debug_abbrev  0x00009d9a       0xab lib_generic/libgeneric.a(div64.o)
 .debug_abbrev  0x00009e45       0xea cpu/arm920t/s3c24x0/libs3c24x0.a(interrupts.o)
 .debug_abbrev  0x00009f2f      0x117 cpu/arm920t/s3c24x0/libs3c24x0.a(speed.o)
 .debug_abbrev  0x0000a046      0x1ed cpu/arm920t/s3c24x0/libs3c24x0.a(timer.o)
 .debug_abbrev  0x0000a233      0x3b8 cpu/arm920t/s3c24x0/libs3c24x0.a(usb_ohci.o)
 .debug_abbrev  0x0000a5eb      0x2d7 cpu/arm920t/s3c24x0/libs3c24x0.a(mmc.o)
 .debug_abbrev  0x0000a8c2      0x228 lib_arm/libarm.a(bootm.o)
 .debug_abbrev  0x0000aaea       0x57 lib_arm/libarm.a(cache.o)
 .debug_abbrev  0x0000ab41       0xfd lib_arm/libarm.a(cache-cp15.o)
 .debug_abbrev  0x0000ac3e       0xae lib_arm/libarm.a(reset.o)
 .debug_abbrev  0x0000acec      0x320 fs/fat/libfat.a(fat.o)
 .debug_abbrev  0x0000b00c      0x403 fs/jffs2/libjffs2.a(jffs2_1pass.o)
 .debug_abbrev  0x0000b40f       0xc2 fs/jffs2/libjffs2.a(compr_rtime.o)
 .debug_abbrev  0x0000b4d1       0xeb fs/jffs2/libjffs2.a(compr_rubin.o)
 .debug_abbrev  0x0000b5bc       0x6f fs/jffs2/libjffs2.a(compr_zlib.o)
 .debug_abbrev  0x0000b62b      0x2ad fs/jffs2/libjffs2.a(mini_inflate.o)
 .debug_abbrev  0x0000b8d8      0x1e6 disk/libdisk.a(part.o)
 .debug_abbrev  0x0000babe      0x1e5 disk/libdisk.a(part_dos.o)
 .debug_abbrev  0x0000bca3      0x1bc drivers/mtd/libmtd.a(mtdcore.o)
 .debug_abbrev  0x0000be5f      0x2a7 drivers/mtd/nand/libnand.a(nand_util.o)
 .debug_abbrev  0x0000c106      0x295 drivers/net/libnet.a(dm9000x.o)
 .debug_abbrev  0x0000c39b      0x110 drivers/rtc/librtc.a(date.o)
 .debug_abbrev  0x0000c4ab      0x18a drivers/rtc/librtc.a(s3c24x0_rtc.o)
 .debug_abbrev  0x0000c635      0x2cc drivers/video/libvideo.a(cfb_console.o)
 .debug_abbrev  0x0000c901      0x177 drivers/video/libvideo.a(s3c2410_fb.o)
 .debug_abbrev  0x0000ca78      0x164 drivers/video/libvideo.a(videomodes.o)
 .debug_abbrev  0x0000cbdc       0x87 cpu/arm920t/libarm920t.a(cpu.o)
 .debug_abbrev  0x0000cc63       0x59 /home/bamboo/work/ok2440/u-boot_for_ok2440/lib_arm/eabi_compat.o

.debug_aranges  0x00000000      0xd20
 .debug_aranges
                0x00000000       0x20 cpu/arm920t/start.o
 .debug_aranges
                0x00000020       0x20 board/tekkamanninja/mini2440/lowlevel_init.o
 .debug_aranges
                0x00000040       0x20 board/tekkamanninja/mini2440/nand_read.o
 .debug_aranges
                0x00000060       0x20 lib_arm/libarm.a(board.o)
 .debug_aranges
                0x00000080       0x20 lib_arm/libarm.a(interrupts.o)
 .debug_aranges
                0x000000a0       0x20 net/libnet.a(eth.o)
 .debug_aranges
                0x000000c0       0x20 net/libnet.a(net.o)
 .debug_aranges
                0x000000e0       0x20 net/libnet.a(nfs.o)
 .debug_aranges
                0x00000100       0x20 net/libnet.a(rarp.o)
 .debug_aranges
                0x00000120       0x20 net/libnet.a(tftp.o)
 .debug_aranges
                0x00000140       0x20 net/libnet.a(bootp.o)
 .debug_aranges
                0x00000160       0x20 drivers/i2c/libi2c.a(s3c24x0_i2c.o)
 .debug_aranges
                0x00000180       0x20 drivers/mtd/nand/libnand.a(nand.o)
 .debug_aranges
                0x000001a0       0x20 drivers/mtd/nand/libnand.a(nand_base.o)
 .debug_aranges
                0x000001c0       0x20 drivers/mtd/nand/libnand.a(nand_bbt.o)
 .debug_aranges
                0x000001e0       0x20 drivers/mtd/nand/libnand.a(nand_ecc.o)
 .debug_aranges
                0x00000200       0x20 drivers/mtd/nand/libnand.a(s3c2410_nand.o)
 .debug_aranges
                0x00000220       0x20 drivers/serial/libserial.a(serial_s3c24x0.o)
 .debug_aranges
                0x00000240       0x20 drivers/usb/slave/libusb_slave.a(usbinit.o)
 .debug_aranges
                0x00000260       0x20 drivers/usb/slave/libusb_slave.a(interrupt.o)
 .debug_aranges
                0x00000280       0x20 drivers/usb/slave/libusb_slave.a(usblib.o)
 .debug_aranges
                0x000002a0       0x20 drivers/usb/slave/libusb_slave.a(usbmain.o)
 .debug_aranges
                0x000002c0       0x20 drivers/usb/slave/libusb_slave.a(usbout.o)
 .debug_aranges
                0x000002e0       0x20 drivers/usb/slave/libusb_slave.a(usbsetup.o)
 .debug_aranges
                0x00000300       0x20 drivers/usb/slave/libusb_slave.a(usbin.o)
 .debug_aranges
                0x00000320       0x20 common/libcommon.a(cmd_bdinfo.o)
 .debug_aranges
                0x00000340       0x20 common/libcommon.a(cmd_bmp.o)
 .debug_aranges
                0x00000360       0x20 common/libcommon.a(cmd_boot.o)
 .debug_aranges
                0x00000380       0x20 common/libcommon.a(cmd_bootm.o)
 .debug_aranges
                0x000003a0       0x20 common/libcommon.a(cmd_cache.o)
 .debug_aranges
                0x000003c0       0x20 common/libcommon.a(cmd_console.o)
 .debug_aranges
                0x000003e0       0x20 common/libcommon.a(cmd_date.o)
 .debug_aranges
                0x00000400       0x20 common/libcommon.a(cmd_eeprom.o)
 .debug_aranges
                0x00000420       0x20 common/libcommon.a(cmd_elf.o)
 .debug_aranges
                0x00000440       0x20 common/libcommon.a(cmd_fat.o)
 .debug_aranges
                0x00000460       0x20 common/libcommon.a(cmd_flash.o)
 .debug_aranges
                0x00000480       0x20 common/libcommon.a(cmd_i2c.o)
 .debug_aranges
                0x000004a0       0x20 common/libcommon.a(cmd_itest.o)
 .debug_aranges
                0x000004c0       0x20 common/libcommon.a(cmd_jffs2.o)
 .debug_aranges
                0x000004e0       0x20 common/libcommon.a(cmd_load.o)
 .debug_aranges
                0x00000500       0x20 common/libcommon.a(cmd_mem.o)
 .debug_aranges
                0x00000520       0x20 common/libcommon.a(cmd_misc.o)
 .debug_aranges
                0x00000540       0x20 common/libcommon.a(cmd_mmc.o)
 .debug_aranges
                0x00000560       0x20 common/libcommon.a(cmd_mtdparts.o)
 .debug_aranges
                0x00000580       0x20 common/libcommon.a(cmd_nand.o)
 .debug_aranges
                0x000005a0       0x20 common/libcommon.a(cmd_net.o)
 .debug_aranges
                0x000005c0       0x20 common/libcommon.a(cmd_nvedit.o)
 .debug_aranges
                0x000005e0       0x20 common/libcommon.a(cmd_reginfo.o)
 .debug_aranges
                0x00000600       0x20 common/libcommon.a(cmd_source.o)
 .debug_aranges
                0x00000620       0x20 common/libcommon.a(cmd_usb.o)
 .debug_aranges
                0x00000640       0x20 common/libcommon.a(cmd_usbslave.o)
 .debug_aranges
                0x00000660       0x20 common/libcommon.a(cmd_ximg.o)
 .debug_aranges
                0x00000680       0x20 common/libcommon.a(command.o)
 .debug_aranges
                0x000006a0       0x20 common/libcommon.a(console.o)
 .debug_aranges
                0x000006c0       0x20 common/libcommon.a(dlmalloc.o)
 .debug_aranges
                0x000006e0       0x20 common/libcommon.a(env_common.o)
 .debug_aranges
                0x00000700       0x20 common/libcommon.a(env_nand.o)
 .debug_aranges
                0x00000720       0x20 common/libcommon.a(exports.o)
 .debug_aranges
                0x00000740       0x20 common/libcommon.a(flash.o)
 .debug_aranges
                0x00000760       0x20 common/libcommon.a(hush.o)
 .debug_aranges
                0x00000780       0x20 common/libcommon.a(image.o)
 .debug_aranges
                0x000007a0       0x20 common/libcommon.a(main.o)
 .debug_aranges
                0x000007c0       0x20 common/libcommon.a(s_record.o)
 .debug_aranges
                0x000007e0       0x20 common/libcommon.a(stdio.o)
 .debug_aranges
                0x00000800       0x20 common/libcommon.a(usb.o)
 .debug_aranges
                0x00000820       0x20 common/libcommon.a(usb_storage.o)
 .debug_aranges
                0x00000840       0x20 common/libcommon.a(xyzModem.o)
 .debug_aranges
                0x00000860       0x20 board/tekkamanninja/mini2440/libmini2440.a(mini2440.o)
 .debug_aranges
                0x00000880       0x20 board/tekkamanninja/mini2440/libmini2440.a(flash.o)
 .debug_aranges
                0x000008a0       0x20 lib_generic/libgeneric.a(crc16.o)
 .debug_aranges
                0x000008c0       0x20 lib_generic/libgeneric.a(crc32.o)
 .debug_aranges
                0x000008e0       0x20 lib_generic/libgeneric.a(display_options.o)
 .debug_aranges
                0x00000900       0x20 lib_generic/libgeneric.a(gunzip.o)
 .debug_aranges
                0x00000920       0x20 lib_generic/libgeneric.a(lmb.o)
 .debug_aranges
                0x00000940       0x20 lib_generic/libgeneric.a(string.o)
 .debug_aranges
                0x00000960       0x20 lib_generic/libgeneric.a(vsprintf.o)
 .debug_aranges
                0x00000980       0x20 lib_generic/libgeneric.a(zlib.o)
 .debug_aranges
                0x000009a0       0x20 lib_generic/libgeneric.a(div64.o)
 .debug_aranges
                0x000009c0       0x20 cpu/arm920t/s3c24x0/libs3c24x0.a(interrupts.o)
 .debug_aranges
                0x000009e0       0x20 cpu/arm920t/s3c24x0/libs3c24x0.a(speed.o)
 .debug_aranges
                0x00000a00       0x20 cpu/arm920t/s3c24x0/libs3c24x0.a(timer.o)
 .debug_aranges
                0x00000a20       0x20 cpu/arm920t/s3c24x0/libs3c24x0.a(usb_ohci.o)
 .debug_aranges
                0x00000a40       0x20 cpu/arm920t/s3c24x0/libs3c24x0.a(mmc.o)
 .debug_aranges
                0x00000a60       0x20 lib_arm/libarm.a(bootm.o)
 .debug_aranges
                0x00000a80       0x20 lib_arm/libarm.a(cache.o)
 .debug_aranges
                0x00000aa0       0x20 lib_arm/libarm.a(cache-cp15.o)
 .debug_aranges
                0x00000ac0       0x20 lib_arm/libarm.a(reset.o)
 .debug_aranges
                0x00000ae0       0x20 fs/fat/libfat.a(fat.o)
 .debug_aranges
                0x00000b00       0x20 fs/jffs2/libjffs2.a(jffs2_1pass.o)
 .debug_aranges
                0x00000b20       0x20 fs/jffs2/libjffs2.a(compr_rtime.o)
 .debug_aranges
                0x00000b40       0x20 fs/jffs2/libjffs2.a(compr_rubin.o)
 .debug_aranges
                0x00000b60       0x20 fs/jffs2/libjffs2.a(compr_zlib.o)
 .debug_aranges
                0x00000b80       0x20 fs/jffs2/libjffs2.a(mini_inflate.o)
 .debug_aranges
                0x00000ba0       0x20 disk/libdisk.a(part.o)
 .debug_aranges
                0x00000bc0       0x20 disk/libdisk.a(part_dos.o)
 .debug_aranges
                0x00000be0       0x20 drivers/mtd/libmtd.a(mtdcore.o)
 .debug_aranges
                0x00000c00       0x20 drivers/mtd/nand/libnand.a(nand_util.o)
 .debug_aranges
                0x00000c20       0x20 drivers/net/libnet.a(dm9000x.o)
 .debug_aranges
                0x00000c40       0x20 drivers/rtc/librtc.a(date.o)
 .debug_aranges
                0x00000c60       0x20 drivers/rtc/librtc.a(s3c24x0_rtc.o)
 .debug_aranges
                0x00000c80       0x20 drivers/video/libvideo.a(cfb_console.o)
 .debug_aranges
                0x00000ca0       0x20 drivers/video/libvideo.a(s3c2410_fb.o)
 .debug_aranges
                0x00000cc0       0x20 drivers/video/libvideo.a(videomodes.o)
 .debug_aranges
                0x00000ce0       0x20 cpu/arm920t/libarm920t.a(cpu.o)
 .debug_aranges
                0x00000d00       0x20 /home/bamboo/work/ok2440/u-boot_for_ok2440/lib_arm/eabi_compat.o

.debug_frame    0x00000000     0x6584
 .debug_frame   0x00000000       0x60 board/tekkamanninja/mini2440/nand_read.o
 .debug_frame   0x00000060       0xa4 lib_arm/libarm.a(board.o)
 .debug_frame   0x00000104      0x108 lib_arm/libarm.a(interrupts.o)
 .debug_frame   0x0000020c      0x1d0 net/libnet.a(eth.o)
 .debug_frame   0x000003dc      0x340 net/libnet.a(net.o)
 .debug_frame   0x0000071c      0x294 net/libnet.a(nfs.o)
 .debug_frame   0x000009b0       0x60 net/libnet.a(rarp.o)
 .debug_frame   0x00000a10       0x98 net/libnet.a(tftp.o)
 .debug_frame   0x00000aa8      0x168 net/libnet.a(bootp.o)
 .debug_frame   0x00000c10      0x108 drivers/i2c/libi2c.a(s3c24x0_i2c.o)
 .debug_frame   0x00000d18       0x2c drivers/mtd/nand/libnand.a(nand.o)
 .debug_frame   0x00000d44      0x710 drivers/mtd/nand/libnand.a(nand_base.o)
 .debug_frame   0x00001454      0x1b8 drivers/mtd/nand/libnand.a(nand_bbt.o)
 .debug_frame   0x0000160c       0x50 drivers/mtd/nand/libnand.a(nand_ecc.o)
 .debug_frame   0x0000165c       0x48 drivers/mtd/nand/libnand.a(s3c2410_nand.o)
 .debug_frame   0x000016a4      0x104 drivers/serial/libserial.a(serial_s3c24x0.o)
 .debug_frame   0x000017a8       0xdc drivers/usb/slave/libusb_slave.a(usbinit.o)
 .debug_frame   0x00001884       0xe4 drivers/usb/slave/libusb_slave.a(interrupt.o)
 .debug_frame   0x00001968       0xd8 drivers/usb/slave/libusb_slave.a(usblib.o)
 .debug_frame   0x00001a40       0x70 drivers/usb/slave/libusb_slave.a(usbmain.o)
 .debug_frame   0x00001ab0       0x78 drivers/usb/slave/libusb_slave.a(usbout.o)
 .debug_frame   0x00001b28       0x70 drivers/usb/slave/libusb_slave.a(usbsetup.o)
 .debug_frame   0x00001b98       0x38 drivers/usb/slave/libusb_slave.a(usbin.o)
 .debug_frame   0x00001bd0       0x3c common/libcommon.a(cmd_bdinfo.o)
 .debug_frame   0x00001c0c       0x54 common/libcommon.a(cmd_bmp.o)
 .debug_frame   0x00001c60       0x44 common/libcommon.a(cmd_boot.o)
 .debug_frame   0x00001ca4      0x224 common/libcommon.a(cmd_bootm.o)
 .debug_frame   0x00001ec8       0x58 common/libcommon.a(cmd_cache.o)
 .debug_frame   0x00001f20       0x30 common/libcommon.a(cmd_console.o)
 .debug_frame   0x00001f50       0x60 common/libcommon.a(cmd_date.o)
 .debug_frame   0x00001fb0       0xa4 common/libcommon.a(cmd_eeprom.o)
 .debug_frame   0x00002054       0xa8 common/libcommon.a(cmd_elf.o)
 .debug_frame   0x000020fc       0x7c common/libcommon.a(cmd_fat.o)
 .debug_frame   0x00002178      0x138 common/libcommon.a(cmd_flash.o)
 .debug_frame   0x000022b0      0x154 common/libcommon.a(cmd_i2c.o)
 .debug_frame   0x00002404       0x74 common/libcommon.a(cmd_itest.o)
 .debug_frame   0x00002478       0x84 common/libcommon.a(cmd_jffs2.o)
 .debug_frame   0x000024fc      0x208 common/libcommon.a(cmd_load.o)
 .debug_frame   0x00002704      0x1a0 common/libcommon.a(cmd_mem.o)
 .debug_frame   0x000028a4       0x30 common/libcommon.a(cmd_misc.o)
 .debug_frame   0x000028d4       0x2c common/libcommon.a(cmd_mmc.o)
 .debug_frame   0x00002900      0x2e8 common/libcommon.a(cmd_mtdparts.o)
 .debug_frame   0x00002be8      0x108 common/libcommon.a(cmd_nand.o)
 .debug_frame   0x00002cf0       0xa0 common/libcommon.a(cmd_net.o)
 .debug_frame   0x00002d90      0x184 common/libcommon.a(cmd_nvedit.o)
 .debug_frame   0x00002f14       0x20 common/libcommon.a(cmd_reginfo.o)
 .debug_frame   0x00002f34       0x58 common/libcommon.a(cmd_source.o)
 .debug_frame   0x00002f8c      0x178 common/libcommon.a(cmd_usb.o)
 .debug_frame   0x00003104       0x30 common/libcommon.a(cmd_usbslave.o)
 .debug_frame   0x00003134       0x38 common/libcommon.a(cmd_ximg.o)
 .debug_frame   0x0000316c      0x1a8 common/libcommon.a(command.o)
 .debug_frame   0x00003314      0x24c common/libcommon.a(console.o)
 .debug_frame   0x00003560      0x14c common/libcommon.a(dlmalloc.o)
 .debug_frame   0x000036ac       0xb4 common/libcommon.a(env_common.o)
 .debug_frame   0x00003760       0xdc common/libcommon.a(env_nand.o)
 .debug_frame   0x0000383c       0x54 common/libcommon.a(exports.o)
 .debug_frame   0x00003890       0x7c common/libcommon.a(flash.o)
 .debug_frame   0x0000390c      0x37c common/libcommon.a(hush.o)
 .debug_frame   0x00003c88      0x288 common/libcommon.a(image.o)
 .debug_frame   0x00003f10      0x138 common/libcommon.a(main.o)
 .debug_frame   0x00004048       0x64 common/libcommon.a(s_record.o)
 .debug_frame   0x000040ac       0xc0 common/libcommon.a(stdio.o)
 .debug_frame   0x0000416c      0x4ac common/libcommon.a(usb.o)
 .debug_frame   0x00004618      0x250 common/libcommon.a(usb_storage.o)
 .debug_frame   0x00004868      0x124 common/libcommon.a(xyzModem.o)
 .debug_frame   0x0000498c       0x6c board/tekkamanninja/mini2440/libmini2440.a(mini2440.o)
 .debug_frame   0x000049f8       0xb0 board/tekkamanninja/mini2440/libmini2440.a(flash.o)
 .debug_frame   0x00004aa8       0x28 lib_generic/libgeneric.a(crc16.o)
 .debug_frame   0x00004ad0       0x60 lib_generic/libgeneric.a(crc32.o)
 .debug_frame   0x00004b30       0x70 lib_generic/libgeneric.a(display_options.o)
 .debug_frame   0x00004ba0       0x74 lib_generic/libgeneric.a(gunzip.o)
 .debug_frame   0x00004c14      0x158 lib_generic/libgeneric.a(lmb.o)
 .debug_frame   0x00004d6c      0x22c lib_generic/libgeneric.a(string.o)
 .debug_frame   0x00004f98      0x168 lib_generic/libgeneric.a(vsprintf.o)
 .debug_frame   0x00005100      0x12c lib_generic/libgeneric.a(zlib.o)
 .debug_frame   0x0000522c       0x34 lib_generic/libgeneric.a(div64.o)
 .debug_frame   0x00005260       0x30 cpu/arm920t/s3c24x0/libs3c24x0.a(interrupts.o)
 .debug_frame   0x00005290       0x78 cpu/arm920t/s3c24x0/libs3c24x0.a(speed.o)
 .debug_frame   0x00005308      0x10c cpu/arm920t/s3c24x0/libs3c24x0.a(timer.o)
 .debug_frame   0x00005414      0x1a0 cpu/arm920t/s3c24x0/libs3c24x0.a(usb_ohci.o)
 .debug_frame   0x000055b4      0x11c cpu/arm920t/s3c24x0/libs3c24x0.a(mmc.o)
 .debug_frame   0x000056d0       0x34 lib_arm/libarm.a(bootm.o)
 .debug_frame   0x00005704       0x20 lib_arm/libarm.a(cache.o)
 .debug_frame   0x00005724       0xec lib_arm/libarm.a(cache-cp15.o)
 .debug_frame   0x00005810       0x28 lib_arm/libarm.a(reset.o)
 .debug_frame   0x00005838      0x1c0 fs/fat/libfat.a(fat.o)
 .debug_frame   0x000059f8      0x230 fs/jffs2/libjffs2.a(jffs2_1pass.o)
 .debug_frame   0x00005c28       0x34 fs/jffs2/libjffs2.a(compr_rtime.o)
 .debug_frame   0x00005c5c       0x58 fs/jffs2/libjffs2.a(compr_rubin.o)
 .debug_frame   0x00005cb4       0x20 fs/jffs2/libjffs2.a(compr_zlib.o)
 .debug_frame   0x00005cd4       0xec fs/jffs2/libjffs2.a(mini_inflate.o)
 .debug_frame   0x00005dc0       0x9c disk/libdisk.a(part.o)
 .debug_frame   0x00005e5c       0xd0 disk/libdisk.a(part_dos.o)
 .debug_frame   0x00005f2c       0x7c drivers/mtd/libmtd.a(mtdcore.o)
 .debug_frame   0x00005fa8       0xf8 drivers/mtd/nand/libnand.a(nand_util.o)
 .debug_frame   0x000060a0      0x17c drivers/net/libnet.a(dm9000x.o)
 .debug_frame   0x0000621c       0x6c drivers/rtc/librtc.a(date.o)
 .debug_frame   0x00006288       0xac drivers/rtc/librtc.a(s3c24x0_rtc.o)
 .debug_frame   0x00006334      0x13c drivers/video/libvideo.a(cfb_console.o)
 .debug_frame   0x00006470       0x40 drivers/video/libvideo.a(s3c2410_fb.o)
 .debug_frame   0x000064b0       0x44 drivers/video/libvideo.a(videomodes.o)
 .debug_frame   0x000064f4       0x28 cpu/arm920t/libarm920t.a(cpu.o)
 .debug_frame   0x0000651c       0x28 /home/bamboo/work/ok2440/u-boot_for_ok2440/lib_arm/eabi_compat.o
 .debug_frame   0x00006544       0x20 /home/bamboo/work/ok2440/cross_tools/4.3.2/bin/../lib/gcc/arm-none-linux-gnueabi/4.3.2/armv4t/libgcc.a(_udivsi3.o)
 .debug_frame   0x00006564       0x20 /home/bamboo/work/ok2440/cross_tools/4.3.2/bin/../lib/gcc/arm-none-linux-gnueabi/4.3.2/armv4t/libgcc.a(_divsi3.o)

.debug_loc      0x00000000    0x21c58
 .debug_loc     0x00000000      0x1c2 board/tekkamanninja/mini2440/nand_read.o
 .debug_loc     0x000001c2       0xc6 lib_arm/libarm.a(board.o)
 .debug_loc     0x00000288      0x1ea lib_arm/libarm.a(interrupts.o)
 .debug_loc     0x00000472      0x543 net/libnet.a(eth.o)
 .debug_loc     0x000009b5      0xb35 net/libnet.a(net.o)
 .debug_loc     0x000014ea      0x885 net/libnet.a(nfs.o)
 .debug_loc     0x00001d6f       0xf8 net/libnet.a(rarp.o)
 .debug_loc     0x00001e67      0x1ea net/libnet.a(tftp.o)
 .debug_loc     0x00002051      0x5c9 net/libnet.a(bootp.o)
 .debug_loc     0x0000261a      0x481 drivers/i2c/libi2c.a(s3c24x0_i2c.o)
 .debug_loc     0x00002a9b       0x1f drivers/mtd/nand/libnand.a(nand.o)
 .debug_loc     0x00002aba     0x2bf8 drivers/mtd/nand/libnand.a(nand_base.o)
 .debug_loc     0x000056b2     0x16c9 drivers/mtd/nand/libnand.a(nand_bbt.o)
 .debug_loc     0x00006d7b      0x1ab drivers/mtd/nand/libnand.a(nand_ecc.o)
 .debug_loc     0x00006f26       0x76 drivers/mtd/nand/libnand.a(s3c2410_nand.o)
 .debug_loc     0x00006f9c      0x1d2 drivers/serial/libserial.a(serial_s3c24x0.o)
 .debug_loc     0x0000716e      0x1ac drivers/usb/slave/libusb_slave.a(usbinit.o)
 .debug_loc     0x0000731a      0x10b drivers/usb/slave/libusb_slave.a(interrupt.o)
 .debug_loc     0x00007425       0x70 drivers/usb/slave/libusb_slave.a(usblib.o)
 .debug_loc     0x00007495       0x9c drivers/usb/slave/libusb_slave.a(usbmain.o)
 .debug_loc     0x00007531       0xac drivers/usb/slave/libusb_slave.a(usbout.o)
 .debug_loc     0x000075dd       0x7b drivers/usb/slave/libusb_slave.a(usbsetup.o)
 .debug_loc     0x00007658       0x32 drivers/usb/slave/libusb_slave.a(usbin.o)
 .debug_loc     0x0000768a       0xbb common/libcommon.a(cmd_bdinfo.o)
 .debug_loc     0x00007745      0x276 common/libcommon.a(cmd_bmp.o)
 .debug_loc     0x000079bb      0x13e common/libcommon.a(cmd_boot.o)
 .debug_loc     0x00007af9      0xaa9 common/libcommon.a(cmd_bootm.o)
 .debug_loc     0x000085a2      0x1c3 common/libcommon.a(cmd_cache.o)
 .debug_loc     0x00008765       0x6b common/libcommon.a(cmd_console.o)
 .debug_loc     0x000087d0      0x2ab common/libcommon.a(cmd_date.o)
 .debug_loc     0x00008a7b      0x2b0 common/libcommon.a(cmd_eeprom.o)
 .debug_loc     0x00008d2b      0x2f0 common/libcommon.a(cmd_elf.o)
 .debug_loc     0x0000901b      0x332 common/libcommon.a(cmd_fat.o)
 .debug_loc     0x0000934d      0xc62 common/libcommon.a(cmd_flash.o)
 .debug_loc     0x00009faf      0x792 common/libcommon.a(cmd_i2c.o)
 .debug_loc     0x0000a741      0x318 common/libcommon.a(cmd_itest.o)
 .debug_loc     0x0000aa59      0x295 common/libcommon.a(cmd_jffs2.o)
 .debug_loc     0x0000acee      0x8db common/libcommon.a(cmd_load.o)
 .debug_loc     0x0000b5c9      0xd68 common/libcommon.a(cmd_mem.o)
 .debug_loc     0x0000c331       0x8c common/libcommon.a(cmd_misc.o)
 .debug_loc     0x0000c3bd       0xec common/libcommon.a(cmd_mmc.o)
 .debug_loc     0x0000c4a9     0x16c0 common/libcommon.a(cmd_mtdparts.o)
 .debug_loc     0x0000db69      0xa4d common/libcommon.a(cmd_nand.o)
 .debug_loc     0x0000e5b6      0x3da common/libcommon.a(cmd_net.o)
 .debug_loc     0x0000e990      0x95d common/libcommon.a(cmd_nvedit.o)
 .debug_loc     0x0000f2ed       0x13 common/libcommon.a(cmd_reginfo.o)
 .debug_loc     0x0000f300      0x1ac common/libcommon.a(cmd_source.o)
 .debug_loc     0x0000f4ac      0x917 common/libcommon.a(cmd_usb.o)
 .debug_loc     0x0000fdc3      0x103 common/libcommon.a(cmd_usbslave.o)
 .debug_loc     0x0000fec6      0x125 common/libcommon.a(cmd_ximg.o)
 .debug_loc     0x0000ffeb      0xe6e common/libcommon.a(command.o)
 .debug_loc     0x00010e59      0x4e8 common/libcommon.a(console.o)
 .debug_loc     0x00011341     0x1235 common/libcommon.a(dlmalloc.o)
 .debug_loc     0x00012576      0x28f common/libcommon.a(env_common.o)
 .debug_loc     0x00012805      0x222 common/libcommon.a(env_nand.o)
 .debug_loc     0x00012a27       0x1f common/libcommon.a(exports.o)
 .debug_loc     0x00012a46      0x374 common/libcommon.a(flash.o)
 .debug_loc     0x00012dba     0x1242 common/libcommon.a(hush.o)
 .debug_loc     0x00013ffc      0x792 common/libcommon.a(image.o)
 .debug_loc     0x0001478e     0x1090 common/libcommon.a(main.o)
 .debug_loc     0x0001581e      0x213 common/libcommon.a(s_record.o)
 .debug_loc     0x00015a31       0xd8 common/libcommon.a(stdio.o)
 .debug_loc     0x00015b09     0x134f common/libcommon.a(usb.o)
 .debug_loc     0x00016e58      0x90c common/libcommon.a(usb_storage.o)
 .debug_loc     0x00017764      0x524 common/libcommon.a(xyzModem.o)
 .debug_loc     0x00017c88       0x32 board/tekkamanninja/mini2440/libmini2440.a(mini2440.o)
 .debug_loc     0x00017cba      0x33d board/tekkamanninja/mini2440/libmini2440.a(flash.o)
 .debug_loc     0x00017ff7       0x3d lib_generic/libgeneric.a(crc16.o)
 .debug_loc     0x00018034      0x204 lib_generic/libgeneric.a(crc32.o)
 .debug_loc     0x00018238      0x187 lib_generic/libgeneric.a(display_options.o)
 .debug_loc     0x000183bf      0x28e lib_generic/libgeneric.a(gunzip.o)
 .debug_loc     0x0001864d      0x667 lib_generic/libgeneric.a(lmb.o)
 .debug_loc     0x00018cb4      0x765 lib_generic/libgeneric.a(string.o)
 .debug_loc     0x00019419      0xc5a lib_generic/libgeneric.a(vsprintf.o)
 .debug_loc     0x0001a073     0x193d lib_generic/libgeneric.a(zlib.o)
 .debug_loc     0x0001b9b0       0xa3 lib_generic/libgeneric.a(div64.o)
 .debug_loc     0x0001ba53       0xeb cpu/arm920t/s3c24x0/libs3c24x0.a(speed.o)
 .debug_loc     0x0001bb3e      0x18d cpu/arm920t/s3c24x0/libs3c24x0.a(timer.o)
 .debug_loc     0x0001bccb      0xde2 cpu/arm920t/s3c24x0/libs3c24x0.a(usb_ohci.o)
 .debug_loc     0x0001caad      0x5db cpu/arm920t/s3c24x0/libs3c24x0.a(mmc.o)
 .debug_loc     0x0001d088       0x81 lib_arm/libarm.a(bootm.o)
 .debug_loc     0x0001d109      0x102 lib_arm/libarm.a(cache-cp15.o)
 .debug_loc     0x0001d20b       0x6b lib_arm/libarm.a(reset.o)
 .debug_loc     0x0001d276      0xe33 fs/fat/libfat.a(fat.o)
 .debug_loc     0x0001e0a9     0x1164 fs/jffs2/libjffs2.a(jffs2_1pass.o)
 .debug_loc     0x0001f20d      0x11f fs/jffs2/libjffs2.a(compr_rtime.o)
 .debug_loc     0x0001f32c      0x2ce fs/jffs2/libjffs2.a(compr_rubin.o)
 .debug_loc     0x0001f5fa       0x4c fs/jffs2/libjffs2.a(compr_zlib.o)
 .debug_loc     0x0001f646      0x469 fs/jffs2/libjffs2.a(mini_inflate.o)
 .debug_loc     0x0001faaf      0x1c8 disk/libdisk.a(part.o)
 .debug_loc     0x0001fc77      0x349 disk/libdisk.a(part_dos.o)
 .debug_loc     0x0001ffc0      0x137 drivers/mtd/libmtd.a(mtdcore.o)
 .debug_loc     0x000200f7      0x6ae drivers/mtd/nand/libnand.a(nand_util.o)
 .debug_loc     0x000207a5      0x347 drivers/net/libnet.a(dm9000x.o)
 .debug_loc     0x00020aec      0x178 drivers/rtc/librtc.a(date.o)
 .debug_loc     0x00020c64       0xd5 drivers/rtc/librtc.a(s3c24x0_rtc.o)
 .debug_loc     0x00020d39      0xc87 drivers/video/libvideo.a(cfb_console.o)
 .debug_loc     0x000219c0      0x101 drivers/video/libvideo.a(s3c2410_fb.o)
 .debug_loc     0x00021ac1      0x13b drivers/video/libvideo.a(videomodes.o)
 .debug_loc     0x00021bfc       0x1f cpu/arm920t/libarm920t.a(cpu.o)
 .debug_loc     0x00021c1b       0x3d /home/bamboo/work/ok2440/u-boot_for_ok2440/lib_arm/eabi_compat.o

.debug_pubnames
                0x00000000     0x4068
 .debug_pubnames
                0x00000000       0x23 board/tekkamanninja/mini2440/nand_read.o
 .debug_pubnames
                0x00000023       0x6f lib_arm/libarm.a(board.o)
 .debug_pubnames
                0x00000092       0xee lib_arm/libarm.a(interrupts.o)
 .debug_pubnames
                0x00000180      0x160 net/libnet.a(eth.o)
 .debug_pubnames
                0x000002e0      0x411 net/libnet.a(net.o)
 .debug_pubnames
                0x000006f1       0x1f net/libnet.a(nfs.o)
 .debug_pubnames
                0x00000710       0x2e net/libnet.a(rarp.o)
 .debug_pubnames
                0x0000073e       0x53 net/libnet.a(tftp.o)
 .debug_pubnames
                0x00000791       0x82 net/libnet.a(bootp.o)
 .debug_pubnames
                0x00000813       0x48 drivers/i2c/libi2c.a(s3c24x0_i2c.o)
 .debug_pubnames
                0x0000085b       0x4a drivers/mtd/nand/libnand.a(nand.o)
 .debug_pubnames
                0x000008a5       0x80 drivers/mtd/nand/libnand.a(nand_base.o)
 .debug_pubnames
                0x00000925       0x60 drivers/mtd/nand/libnand.a(nand_bbt.o)
 .debug_pubnames
                0x00000985       0x3f drivers/mtd/nand/libnand.a(nand_ecc.o)
 .debug_pubnames
                0x000009c4       0x38 drivers/mtd/nand/libnand.a(nand_ids.o)
 .debug_pubnames
                0x000009fc       0x34 drivers/mtd/nand/libnand.a(s3c2410_nand.o)
 .debug_pubnames
                0x00000a30       0xd2 drivers/serial/libserial.a(serial_s3c24x0.o)
 .debug_pubnames
                0x00000b02      0x1c8 drivers/usb/slave/libusb_slave.a(usbinit.o)
 .debug_pubnames
                0x00000cca       0xcc drivers/usb/slave/libusb_slave.a(interrupt.o)
 .debug_pubnames
                0x00000d96       0xaa drivers/usb/slave/libusb_slave.a(usblib.o)
 .debug_pubnames
                0x00000e40       0x78 drivers/usb/slave/libusb_slave.a(usbmain.o)
 .debug_pubnames
                0x00000eb8       0x50 drivers/usb/slave/libusb_slave.a(usbout.o)
 .debug_pubnames
                0x00000f08      0x182 drivers/usb/slave/libusb_slave.a(usbsetup.o)
 .debug_pubnames
                0x0000108a       0x51 drivers/usb/slave/libusb_slave.a(usbin.o)
 .debug_pubnames
                0x000010db       0x3f common/libcommon.a(cmd_bdinfo.o)
 .debug_pubnames
                0x0000111a       0x41 common/libcommon.a(cmd_bmp.o)
 .debug_pubnames
                0x0000115b       0x56 common/libcommon.a(cmd_boot.o)
 .debug_pubnames
                0x000011b1      0x130 common/libcommon.a(cmd_bootm.o)
 .debug_pubnames
                0x000012e1       0x5e common/libcommon.a(cmd_cache.o)
 .debug_pubnames
                0x0000133f       0x3a common/libcommon.a(cmd_console.o)
 .debug_pubnames
                0x00001379       0x54 common/libcommon.a(cmd_date.o)
 .debug_pubnames
                0x000013cd       0x7a common/libcommon.a(cmd_eeprom.o)
 .debug_pubnames
                0x00001447       0x9b common/libcommon.a(cmd_elf.o)
 .debug_pubnames
                0x000014e2       0x8d common/libcommon.a(cmd_fat.o)
 .debug_pubnames
                0x0000156f       0xc8 common/libcommon.a(cmd_flash.o)
 .debug_pubnames
                0x00001637       0xcb common/libcommon.a(cmd_i2c.o)
 .debug_pubnames
                0x00001702       0x53 common/libcommon.a(cmd_itest.o)
 .debug_pubnames
                0x00001755       0x8e common/libcommon.a(cmd_jffs2.o)
 .debug_pubnames
                0x000017e3      0x1c2 common/libcommon.a(cmd_load.o)
 .debug_pubnames
                0x000019a5      0x1f5 common/libcommon.a(cmd_mem.o)
 .debug_pubnames
                0x00001b9a       0x36 common/libcommon.a(cmd_misc.o)
 .debug_pubnames
                0x00001bd0       0x32 common/libcommon.a(cmd_mmc.o)
 .debug_pubnames
                0x00001c02       0xf6 common/libcommon.a(cmd_mtdparts.o)
 .debug_pubnames
                0x00001cf8       0x5b common/libcommon.a(cmd_nand.o)
 .debug_pubnames
                0x00001d53       0xe8 common/libcommon.a(cmd_net.o)
 .debug_pubnames
                0x00001e3b      0x142 common/libcommon.a(cmd_nvedit.o)
 .debug_pubnames
                0x00001f7d       0x3a common/libcommon.a(cmd_reginfo.o)
 .debug_pubnames
                0x00001fb7       0x43 common/libcommon.a(cmd_source.o)
 .debug_pubnames
                0x00001ffa      0x142 common/libcommon.a(cmd_usb.o)
 .debug_pubnames
                0x0000213c       0x5f common/libcommon.a(cmd_usbslave.o)
 .debug_pubnames
                0x0000219b       0x3e common/libcommon.a(cmd_ximg.o)
 .debug_pubnames
                0x000021d9      0x171 common/libcommon.a(command.o)
 .debug_pubnames
                0x0000234a      0x147 common/libcommon.a(console.o)
 .debug_pubnames
                0x00002491       0xfd common/libcommon.a(dlmalloc.o)
 .debug_pubnames
                0x0000258e       0xb4 common/libcommon.a(env_common.o)
 .debug_pubnames
                0x00002642       0x95 common/libcommon.a(env_nand.o)
 .debug_pubnames
                0x000026d7       0x3c common/libcommon.a(exports.o)
 .debug_pubnames
                0x00002713       0x53 common/libcommon.a(flash.o)
 .debug_pubnames
                0x00002766      0x11d common/libcommon.a(hush.o)
 .debug_pubnames
                0x00002883      0x22c common/libcommon.a(image.o)
 .debug_pubnames
                0x00002aaf       0xcd common/libcommon.a(main.o)
 .debug_pubnames
                0x00002b7c       0x22 common/libcommon.a(s_record.o)
 .debug_pubnames
                0x00002b9e       0xca common/libcommon.a(stdio.o)
 .debug_pubnames
                0x00002c68      0x339 common/libcommon.a(usb.o)
 .debug_pubnames
                0x00002fa1      0x153 common/libcommon.a(usb_storage.o)
 .debug_pubnames
                0x000030f4       0xd5 common/libcommon.a(xyzModem.o)
 .debug_pubnames
                0x000031c9       0x5e board/tekkamanninja/mini2440/libmini2440.a(mini2440.o)
 .debug_pubnames
                0x00003227       0x64 board/tekkamanninja/mini2440/libmini2440.a(flash.o)
 .debug_pubnames
                0x0000328b       0x20 lib_generic/libgeneric.a(crc16.o)
 .debug_pubnames
                0x000032ab       0x3b lib_generic/libgeneric.a(crc32.o)
 .debug_pubnames
                0x000032e6       0x1d lib_generic/libgeneric.a(ctype.o)
 .debug_pubnames
                0x00003303       0x46 lib_generic/libgeneric.a(display_options.o)
 .debug_pubnames
                0x00003349       0x3d lib_generic/libgeneric.a(gunzip.o)
 .debug_pubnames
                0x00003386       0xbb lib_generic/libgeneric.a(lmb.o)
 .debug_pubnames
                0x00003441      0x130 lib_generic/libgeneric.a(string.o)
 .debug_pubnames
                0x00003571       0x73 lib_generic/libgeneric.a(vsprintf.o)
 .debug_pubnames
                0x000035e4       0xb4 lib_generic/libgeneric.a(zlib.o)
 .debug_pubnames
                0x00003698       0x21 lib_generic/libgeneric.a(div64.o)
 .debug_pubnames
                0x000036b9       0x35 cpu/arm920t/s3c24x0/libs3c24x0.a(interrupts.o)
 .debug_pubnames
                0x000036ee       0x46 cpu/arm920t/s3c24x0/libs3c24x0.a(speed.o)
 .debug_pubnames
                0x00003734       0xd3 cpu/arm920t/s3c24x0/libs3c24x0.a(timer.o)
 .debug_pubnames
                0x00003807      0x128 cpu/arm920t/s3c24x0/libs3c24x0.a(usb_ohci.o)
 .debug_pubnames
                0x0000392f       0x73 cpu/arm920t/s3c24x0/libs3c24x0.a(mmc.o)
 .debug_pubnames
                0x000039a2       0x2c lib_arm/libarm.a(bootm.o)
 .debug_pubnames
                0x000039ce       0x22 lib_arm/libarm.a(cache.o)
 .debug_pubnames
                0x000039f0       0x80 lib_arm/libarm.a(cache-cp15.o)
 .debug_pubnames
                0x00003a70       0x1f lib_arm/libarm.a(reset.o)
 .debug_pubnames
                0x00003a8f       0xc7 fs/fat/libfat.a(fat.o)
 .debug_pubnames
                0x00003b56       0x90 fs/jffs2/libjffs2.a(jffs2_1pass.o)
 .debug_pubnames
                0x00003be6       0x27 fs/jffs2/libjffs2.a(compr_rtime.o)
 .debug_pubnames
                0x00003c0d       0x42 fs/jffs2/libjffs2.a(compr_rubin.o)
 .debug_pubnames
                0x00003c4f       0x26 fs/jffs2/libjffs2.a(compr_zlib.o)
 .debug_pubnames
                0x00003c75       0x54 fs/jffs2/libjffs2.a(mini_inflate.o)
 .debug_pubnames
                0x00003cc9       0x67 disk/libdisk.a(part.o)
 .debug_pubnames
                0x00003d30       0x52 disk/libdisk.a(part_dos.o)
 .debug_pubnames
                0x00003d82       0x82 drivers/mtd/libmtd.a(mtdcore.o)
 .debug_pubnames
                0x00003e04       0x55 drivers/mtd/nand/libnand.a(nand_util.o)
 .debug_pubnames
                0x00003e59       0x28 drivers/net/libnet.a(dm9000x.o)
 .debug_pubnames
                0x00003e81       0x38 drivers/rtc/librtc.a(date.o)
 .debug_pubnames
                0x00003eb9       0x38 drivers/rtc/librtc.a(s3c24x0_rtc.o)
 .debug_pubnames
                0x00003ef1       0xaa drivers/video/libvideo.a(cfb_console.o)
 .debug_pubnames
                0x00003f9b       0x3e drivers/video/libvideo.a(s3c2410_fb.o)
 .debug_pubnames
                0x00003fd9       0x48 drivers/video/libvideo.a(videomodes.o)
 .debug_pubnames
                0x00004021       0x2b cpu/arm920t/libarm920t.a(cpu.o)
 .debug_pubnames
                0x0000404c       0x1c /home/bamboo/work/ok2440/u-boot_for_ok2440/lib_arm/eabi_compat.o

.debug_ranges   0x00000000     0x2210
 .debug_ranges  0x00000000       0x30 board/tekkamanninja/mini2440/nand_read.o
 .debug_ranges  0x00000030       0x50 net/libnet.a(eth.o)
 .debug_ranges  0x00000080       0xd8 net/libnet.a(net.o)
 .debug_ranges  0x00000158       0x30 net/libnet.a(nfs.o)
 .debug_ranges  0x00000188       0x30 net/libnet.a(tftp.o)
 .debug_ranges  0x000001b8       0xa8 net/libnet.a(bootp.o)
 .debug_ranges  0x00000260       0x28 drivers/mtd/nand/libnand.a(nand.o)
 .debug_ranges  0x00000288      0x1c0 drivers/mtd/nand/libnand.a(nand_base.o)
 .debug_ranges  0x00000448      0x178 drivers/mtd/nand/libnand.a(nand_bbt.o)
 .debug_ranges  0x000005c0       0x38 common/libcommon.a(cmd_bdinfo.o)
 .debug_ranges  0x000005f8       0x40 common/libcommon.a(cmd_bmp.o)
 .debug_ranges  0x00000638       0xf0 common/libcommon.a(cmd_bootm.o)
 .debug_ranges  0x00000728       0x38 common/libcommon.a(cmd_eeprom.o)
 .debug_ranges  0x00000760       0x18 common/libcommon.a(cmd_elf.o)
 .debug_ranges  0x00000778      0x188 common/libcommon.a(cmd_load.o)
 .debug_ranges  0x00000900       0x18 common/libcommon.a(cmd_mem.o)
 .debug_ranges  0x00000918      0x2e8 common/libcommon.a(cmd_mtdparts.o)
 .debug_ranges  0x00000c00       0x28 common/libcommon.a(cmd_nand.o)
 .debug_ranges  0x00000c28       0x68 common/libcommon.a(cmd_nvedit.o)
 .debug_ranges  0x00000c90       0x50 common/libcommon.a(cmd_usb.o)
 .debug_ranges  0x00000ce0      0x100 common/libcommon.a(command.o)
 .debug_ranges  0x00000de0       0x60 common/libcommon.a(dlmalloc.o)
 .debug_ranges  0x00000e40       0x30 common/libcommon.a(env_common.o)
 .debug_ranges  0x00000e70       0x40 common/libcommon.a(flash.o)
 .debug_ranges  0x00000eb0      0x368 common/libcommon.a(hush.o)
 .debug_ranges  0x00001218       0xc0 common/libcommon.a(image.o)
 .debug_ranges  0x000012d8      0x1b8 common/libcommon.a(main.o)
 .debug_ranges  0x00001490       0x60 common/libcommon.a(stdio.o)
 .debug_ranges  0x000014f0       0x20 common/libcommon.a(usb.o)
 .debug_ranges  0x00001510       0x98 common/libcommon.a(usb_storage.o)
 .debug_ranges  0x000015a8       0x18 board/tekkamanninja/mini2440/libmini2440.a(flash.o)
 .debug_ranges  0x000015c0       0x90 lib_generic/libgeneric.a(lmb.o)
 .debug_ranges  0x00001650       0x58 lib_generic/libgeneric.a(vsprintf.o)
 .debug_ranges  0x000016a8       0x38 lib_generic/libgeneric.a(zlib.o)
 .debug_ranges  0x000016e0      0x200 cpu/arm920t/s3c24x0/libs3c24x0.a(usb_ohci.o)
 .debug_ranges  0x000018e0       0x18 cpu/arm920t/s3c24x0/libs3c24x0.a(mmc.o)
 .debug_ranges  0x000018f8       0xb0 lib_arm/libarm.a(bootm.o)
 .debug_ranges  0x000019a8      0x178 fs/fat/libfat.a(fat.o)
 .debug_ranges  0x00001b20      0x410 fs/jffs2/libjffs2.a(jffs2_1pass.o)
 .debug_ranges  0x00001f30       0x20 fs/jffs2/libjffs2.a(compr_rubin.o)
 .debug_ranges  0x00001f50      0x110 fs/jffs2/libjffs2.a(mini_inflate.o)
 .debug_ranges  0x00002060       0x48 drivers/mtd/nand/libnand.a(nand_util.o)
 .debug_ranges  0x000020a8       0x30 drivers/net/libnet.a(dm9000x.o)
 .debug_ranges  0x000020d8      0x100 drivers/video/libvideo.a(cfb_console.o)
 .debug_ranges  0x000021d8       0x38 drivers/video/libvideo.a(videomodes.o)

.debug_str      0x00000000     0xa189
 .debug_str     0x00000000      0x131 board/tekkamanninja/mini2440/nand_read.o
                                0x194 (size before relaxing)
 .debug_str     0x00000131      0x33b lib_arm/libarm.a(board.o)
                                0x3f7 (size before relaxing)
 .debug_str     0x0000046c       0xe5 lib_arm/libarm.a(interrupts.o)
                                0x28d (size before relaxing)
 .debug_str     0x00000551      0x270 net/libnet.a(eth.o)
                                0x3dd (size before relaxing)
 .debug_str     0x000007c1      0x607 net/libnet.a(net.o)
                                0x83b (size before relaxing)
 .debug_str     0x00000dc8      0x28a net/libnet.a(nfs.o)
                                0x464 (size before relaxing)
 .debug_str     0x00001052       0x4c net/libnet.a(rarp.o)
                                0x19b (size before relaxing)
 .debug_str     0x0000109e      0x131 net/libnet.a(tftp.o)
                                0x2fa (size before relaxing)
 .debug_str     0x000011cf      0x246 net/libnet.a(bootp.o)
                                0x490 (size before relaxing)
 .debug_str     0x00001415      0x112 drivers/i2c/libi2c.a(s3c24x0_i2c.o)
                                0x38a (size before relaxing)
 .debug_str     0x00001527      0x52b drivers/mtd/nand/libnand.a(nand.o)
                                0x894 (size before relaxing)
 .debug_str     0x00001a52      0x70e drivers/mtd/nand/libnand.a(nand_base.o)
                                0xf04 (size before relaxing)
 .debug_str     0x00002160      0x281 drivers/mtd/nand/libnand.a(nand_bbt.o)
                                0xa3c (size before relaxing)
 .debug_str     0x000023e1       0x8c drivers/mtd/nand/libnand.a(nand_ecc.o)
                                0x50c (size before relaxing)
 .debug_str     0x0000246d        0xb drivers/mtd/nand/libnand.a(nand_ids.o)
                                0x145 (size before relaxing)
 .debug_str     0x00002478      0x172 drivers/mtd/nand/libnand.a(s3c2410_nand.o)
                                0x8ef (size before relaxing)
 .debug_str     0x000025ea      0x14e drivers/serial/libserial.a(serial_s3c24x0.o)
                                0x2f2 (size before relaxing)
 .debug_str     0x00002738      0x20b drivers/usb/slave/libusb_slave.a(usbinit.o)
                                0x47f (size before relaxing)
 .debug_str     0x00002943       0xe8 drivers/usb/slave/libusb_slave.a(interrupt.o)
                                0x3cc (size before relaxing)
 .debug_str     0x00002a2b      0x2cc drivers/usb/slave/libusb_slave.a(usblib.o)
                                0x44e (size before relaxing)
 .debug_str     0x00002cf7       0x75 drivers/usb/slave/libusb_slave.a(usbmain.o)
                                0x349 (size before relaxing)
 .debug_str     0x00002d6c       0x65 drivers/usb/slave/libusb_slave.a(usbout.o)
                                0x472 (size before relaxing)
 .debug_str     0x00002dd1      0x42a drivers/usb/slave/libusb_slave.a(usbsetup.o)
                                0x761 (size before relaxing)
 .debug_str     0x000031fb       0x3f drivers/usb/slave/libusb_slave.a(usbin.o)
                                0x313 (size before relaxing)
 .debug_str     0x0000323a       0xa3 common/libcommon.a(cmd_bdinfo.o)
                                0x219 (size before relaxing)
 .debug_str     0x000032dd      0x122 common/libcommon.a(cmd_bmp.o)
                                0x2a1 (size before relaxing)
 .debug_str     0x000033ff       0x3f common/libcommon.a(cmd_boot.o)
                                0x172 (size before relaxing)
 .debug_str     0x0000343e      0x502 common/libcommon.a(cmd_bootm.o)
                                0x7af (size before relaxing)
 .debug_str     0x00003940       0x4f common/libcommon.a(cmd_cache.o)
                                0x16b (size before relaxing)
 .debug_str     0x0000398f       0x6c common/libcommon.a(cmd_console.o)
                                0x1bb (size before relaxing)
 .debug_str     0x000039fb       0xa9 common/libcommon.a(cmd_date.o)
                                0x288 (size before relaxing)
 .debug_str     0x00003aa4       0x6e common/libcommon.a(cmd_eeprom.o)
                                0x1c0 (size before relaxing)
 .debug_str     0x00003b12      0x1b0 common/libcommon.a(cmd_elf.o)
                                0x36c (size before relaxing)
 .debug_str     0x00003cc2       0xce common/libcommon.a(cmd_fat.o)
                                0x243 (size before relaxing)
 .debug_str     0x00003d90      0x1a0 common/libcommon.a(cmd_flash.o)
                                0x394 (size before relaxing)
 .debug_str     0x00003f30      0x151 common/libcommon.a(cmd_i2c.o)
                                0x2d7 (size before relaxing)
 .debug_str     0x00004081       0x80 common/libcommon.a(cmd_itest.o)
                                0x1bc (size before relaxing)
 .debug_str     0x00004101       0xb4 common/libcommon.a(cmd_jffs2.o)
                                0x294 (size before relaxing)
 .debug_str     0x000041b5      0x474 common/libcommon.a(cmd_load.o)
                                0x6ea (size before relaxing)
 .debug_str     0x00004629      0x1e5 common/libcommon.a(cmd_mem.o)
                                0x3b0 (size before relaxing)
 .debug_str     0x0000480e       0x27 common/libcommon.a(cmd_misc.o)
                                0x155 (size before relaxing)
 .debug_str     0x00004835       0x22 common/libcommon.a(cmd_mmc.o)
                                0x14a (size before relaxing)
 .debug_str     0x00004857      0x39c common/libcommon.a(cmd_mtdparts.o)
                                0x97a (size before relaxing)
 .debug_str     0x00004bf3       0xec common/libcommon.a(cmd_nand.o)
                                0xa45 (size before relaxing)
 .debug_str     0x00004cdf       0xd2 common/libcommon.a(cmd_net.o)
                                0x2da (size before relaxing)
 .debug_str     0x00004db1      0x122 common/libcommon.a(cmd_nvedit.o)
                                0x396 (size before relaxing)
 .debug_str     0x00004ed3       0x2e common/libcommon.a(cmd_reginfo.o)
                                0x14a (size before relaxing)
 .debug_str     0x00004f01       0x35 common/libcommon.a(cmd_source.o)
                                0x280 (size before relaxing)
 .debug_str     0x00004f36      0x32d common/libcommon.a(cmd_usb.o)
                                0x7bb (size before relaxing)
 .debug_str     0x00005263       0x4c common/libcommon.a(cmd_usbslave.o)
                                0x1c5 (size before relaxing)
 .debug_str     0x000052af       0x2f common/libcommon.a(cmd_ximg.o)
                                0x276 (size before relaxing)
 .debug_str     0x000052de      0x22e common/libcommon.a(command.o)
                                0x39b (size before relaxing)
 .debug_str     0x0000550c      0x180 common/libcommon.a(console.o)
                                0x508 (size before relaxing)
 .debug_str     0x0000568c      0x2d7 common/libcommon.a(dlmalloc.o)
                                0x4ed (size before relaxing)
 .debug_str     0x00005963       0xba common/libcommon.a(env_common.o)
                                0x26e (size before relaxing)
 .debug_str     0x00005a1d       0x83 common/libcommon.a(env_nand.o)
                                0x650 (size before relaxing)
 .debug_str     0x00005aa0       0x1f common/libcommon.a(exports.o)
                                0x30e (size before relaxing)
 .debug_str     0x00005abf       0x46 common/libcommon.a(flash.o)
                                0x190 (size before relaxing)
 .debug_str     0x00005b05      0x4c5 common/libcommon.a(hush.o)
                                0x79d (size before relaxing)
 .debug_str     0x00005fca      0x2e3 common/libcommon.a(image.o)
                                0x7f8 (size before relaxing)
 .debug_str     0x000062ad      0x1e7 common/libcommon.a(main.o)
                                0x411 (size before relaxing)
 .debug_str     0x00006494       0x3a common/libcommon.a(s_record.o)
                                0x11d (size before relaxing)
 .debug_str     0x000064ce       0x87 common/libcommon.a(stdio.o)
                                0x2ad (size before relaxing)
 .debug_str     0x00006555      0x501 common/libcommon.a(usb.o)
                                0xa0e (size before relaxing)
 .debug_str     0x00006a56      0x407 common/libcommon.a(usb_storage.o)
                                0x982 (size before relaxing)
 .debug_str     0x00006e5d      0x1a3 common/libcommon.a(xyzModem.o)
                                0x2de (size before relaxing)
 .debug_str     0x00007000      0x182 board/tekkamanninja/mini2440/libmini2440.a(mini2440.o)
                                0x5cb (size before relaxing)
 .debug_str     0x00007182       0x54 board/tekkamanninja/mini2440/libmini2440.a(flash.o)
                                0x1d9 (size before relaxing)
 .debug_str     0x000071d6       0x64 lib_generic/libgeneric.a(crc16.o)
                                0x10e (size before relaxing)
 .debug_str     0x0000723a       0x74 lib_generic/libgeneric.a(crc32.o)
                                0x123 (size before relaxing)
 .debug_str     0x000072ae        0x8 lib_generic/libgeneric.a(ctype.o)
                                 0x60 (size before relaxing)
 .debug_str     0x000072b6       0x37 lib_generic/libgeneric.a(display_options.o)
                                0x189 (size before relaxing)
 .debug_str     0x000072ed       0xd6 lib_generic/libgeneric.a(gunzip.o)
                                0x1e9 (size before relaxing)
 .debug_str     0x000073c3      0x161 lib_generic/libgeneric.a(lmb.o)
                                0x2bf (size before relaxing)
 .debug_str     0x00007524       0xbb lib_generic/libgeneric.a(string.o)
                                0x1ec (size before relaxing)
 .debug_str     0x000075df      0x10a lib_generic/libgeneric.a(vsprintf.o)
                                0x297 (size before relaxing)
 .debug_str     0x000076e9      0x29c lib_generic/libgeneric.a(zlib.o)
                                0x54e (size before relaxing)
 .debug_str     0x00007985       0x18 lib_generic/libgeneric.a(div64.o)
                                0x107 (size before relaxing)
 .debug_str     0x0000799d       0x61 cpu/arm920t/s3c24x0/libs3c24x0.a(interrupts.o)
                                0x191 (size before relaxing)
 .debug_str     0x000079fe       0x3e cpu/arm920t/s3c24x0/libs3c24x0.a(speed.o)
                                0x18b (size before relaxing)
 .debug_str     0x00007a3c      0x116 cpu/arm920t/s3c24x0/libs3c24x0.a(timer.o)
                                0x278 (size before relaxing)
 .debug_str     0x00007b52      0x4e9 cpu/arm920t/s3c24x0/libs3c24x0.a(usb_ohci.o)
                                0xc3f (size before relaxing)
 .debug_str     0x0000803b      0x424 cpu/arm920t/s3c24x0/libs3c24x0.a(mmc.o)
                                0x69d (size before relaxing)
 .debug_str     0x0000845f      0x231 lib_arm/libarm.a(bootm.o)
                                0x5fb (size before relaxing)
 .debug_str     0x00008690       0x1a lib_arm/libarm.a(cache.o)
                                 0xea (size before relaxing)
 .debug_str     0x000086aa       0x84 lib_arm/libarm.a(cache-cp15.o)
                                0x176 (size before relaxing)
 .debug_str     0x0000872e        0x8 lib_arm/libarm.a(reset.o)
                                0x12e (size before relaxing)
 .debug_str     0x00008736      0x455 fs/fat/libfat.a(fat.o)
                                0x689 (size before relaxing)
 .debug_str     0x00008b8b      0x638 fs/jffs2/libjffs2.a(jffs2_1pass.o)
                                0xc86 (size before relaxing)
 .debug_str     0x000091c3       0x5a fs/jffs2/libjffs2.a(compr_rtime.o)
                                0x130 (size before relaxing)
 .debug_str     0x0000921d       0x46 fs/jffs2/libjffs2.a(compr_rubin.o)
                                0x155 (size before relaxing)
 .debug_str     0x00009263       0x1d fs/jffs2/libjffs2.a(compr_zlib.o)
                                0x10d (size before relaxing)
 .debug_str     0x00009280      0x21a fs/jffs2/libjffs2.a(mini_inflate.o)
                                0x2f9 (size before relaxing)
 .debug_str     0x0000949a       0xc0 disk/libdisk.a(part.o)
                                0x2e3 (size before relaxing)
 .debug_str     0x0000955a      0x13a disk/libdisk.a(part_dos.o)
                                0x2fa (size before relaxing)
 .debug_str     0x00009694       0xa4 drivers/mtd/libmtd.a(mtdcore.o)
                                0x4d4 (size before relaxing)
 .debug_str     0x00009738      0x119 drivers/mtd/nand/libnand.a(nand_util.o)
                                0x9b2 (size before relaxing)
 .debug_str     0x00009851      0x2a6 drivers/net/libnet.a(dm9000x.o)
                                0x426 (size before relaxing)
 .debug_str     0x00009af7       0x7d drivers/rtc/librtc.a(date.o)
                                0x172 (size before relaxing)
 .debug_str     0x00009b74      0x139 drivers/rtc/librtc.a(s3c24x0_rtc.o)
                                0x2cb (size before relaxing)
 .debug_str     0x00009cad      0x2cd drivers/video/libvideo.a(cfb_console.o)
                                0x5cc (size before relaxing)
 .debug_str     0x00009f7a      0x13d drivers/video/libvideo.a(s3c2410_fb.o)
                                0x329 (size before relaxing)
 .debug_str     0x0000a0b7       0x59 drivers/video/libvideo.a(videomodes.o)
                                0x1f9 (size before relaxing)
 .debug_str     0x0000a110       0x5e cpu/arm920t/libarm920t.a(cpu.o)
                                 0xf3 (size before relaxing)
 .debug_str     0x0000a16e       0x1b /home/bamboo/work/ok2440/u-boot_for_ok2440/lib_arm/eabi_compat.o
                                 0xe3 (size before relaxing)

.comment        0x00000000     0x113a
 .comment       0x00000000       0x2a board/tekkamanninja/mini2440/nand_read.o
 .comment       0x0000002a       0x2a lib_arm/libarm.a(board.o)
 .comment       0x00000054       0x2a lib_arm/libarm.a(interrupts.o)
 .comment       0x0000007e       0x2a net/libnet.a(eth.o)
 .comment       0x000000a8       0x2a net/libnet.a(net.o)
 .comment       0x000000d2       0x2a net/libnet.a(nfs.o)
 .comment       0x000000fc       0x2a net/libnet.a(rarp.o)
 .comment       0x00000126       0x2a net/libnet.a(tftp.o)
 .comment       0x00000150       0x2a net/libnet.a(bootp.o)
 .comment       0x0000017a       0x2a drivers/i2c/libi2c.a(s3c24x0_i2c.o)
 .comment       0x000001a4       0x2a drivers/mtd/nand/libnand.a(nand.o)
 .comment       0x000001ce       0x2a drivers/mtd/nand/libnand.a(nand_base.o)
 .comment       0x000001f8       0x2a drivers/mtd/nand/libnand.a(nand_bbt.o)
 .comment       0x00000222       0x2a drivers/mtd/nand/libnand.a(nand_ecc.o)
 .comment       0x0000024c       0x2a drivers/mtd/nand/libnand.a(nand_ids.o)
 .comment       0x00000276       0x2a drivers/mtd/nand/libnand.a(s3c2410_nand.o)
 .comment       0x000002a0       0x2a drivers/serial/libserial.a(serial_s3c24x0.o)
 .comment       0x000002ca       0x2a drivers/usb/slave/libusb_slave.a(usbinit.o)
 .comment       0x000002f4       0x2a drivers/usb/slave/libusb_slave.a(interrupt.o)
 .comment       0x0000031e       0x2a drivers/usb/slave/libusb_slave.a(usblib.o)
 .comment       0x00000348       0x2a drivers/usb/slave/libusb_slave.a(usbmain.o)
 .comment       0x00000372       0x2a drivers/usb/slave/libusb_slave.a(usbout.o)
 .comment       0x0000039c       0x2a drivers/usb/slave/libusb_slave.a(usbsetup.o)
 .comment       0x000003c6       0x2a drivers/usb/slave/libusb_slave.a(usbin.o)
 .comment       0x000003f0       0x2a common/libcommon.a(cmd_bdinfo.o)
 .comment       0x0000041a       0x2a common/libcommon.a(cmd_bmp.o)
 .comment       0x00000444       0x2a common/libcommon.a(cmd_boot.o)
 .comment       0x0000046e       0x2a common/libcommon.a(cmd_bootm.o)
 .comment       0x00000498       0x2a common/libcommon.a(cmd_cache.o)
 .comment       0x000004c2       0x2a common/libcommon.a(cmd_console.o)
 .comment       0x000004ec       0x2a common/libcommon.a(cmd_date.o)
 .comment       0x00000516       0x2a common/libcommon.a(cmd_eeprom.o)
 .comment       0x00000540       0x2a common/libcommon.a(cmd_elf.o)
 .comment       0x0000056a       0x2a common/libcommon.a(cmd_fat.o)
 .comment       0x00000594       0x2a common/libcommon.a(cmd_flash.o)
 .comment       0x000005be       0x2a common/libcommon.a(cmd_i2c.o)
 .comment       0x000005e8       0x2a common/libcommon.a(cmd_itest.o)
 .comment       0x00000612       0x2a common/libcommon.a(cmd_jffs2.o)
 .comment       0x0000063c       0x2a common/libcommon.a(cmd_load.o)
 .comment       0x00000666       0x2a common/libcommon.a(cmd_mem.o)
 .comment       0x00000690       0x2a common/libcommon.a(cmd_misc.o)
 .comment       0x000006ba       0x2a common/libcommon.a(cmd_mmc.o)
 .comment       0x000006e4       0x2a common/libcommon.a(cmd_mtdparts.o)
 .comment       0x0000070e       0x2a common/libcommon.a(cmd_nand.o)
 .comment       0x00000738       0x2a common/libcommon.a(cmd_net.o)
 .comment       0x00000762       0x2a common/libcommon.a(cmd_nvedit.o)
 .comment       0x0000078c       0x2a common/libcommon.a(cmd_reginfo.o)
 .comment       0x000007b6       0x2a common/libcommon.a(cmd_source.o)
 .comment       0x000007e0       0x2a common/libcommon.a(cmd_usb.o)
 .comment       0x0000080a       0x2a common/libcommon.a(cmd_usbslave.o)
 .comment       0x00000834       0x2a common/libcommon.a(cmd_ximg.o)
 .comment       0x0000085e       0x2a common/libcommon.a(command.o)
 .comment       0x00000888       0x2a common/libcommon.a(console.o)
 .comment       0x000008b2       0x2a common/libcommon.a(dlmalloc.o)
 .comment       0x000008dc       0x2a common/libcommon.a(env_common.o)
 .comment       0x00000906       0x2a common/libcommon.a(env_nand.o)
 .comment       0x00000930       0x2a common/libcommon.a(exports.o)
 .comment       0x0000095a       0x2a common/libcommon.a(flash.o)
 .comment       0x00000984       0x2a common/libcommon.a(hush.o)
 .comment       0x000009ae       0x2a common/libcommon.a(image.o)
 .comment       0x000009d8       0x2a common/libcommon.a(main.o)
 .comment       0x00000a02       0x2a common/libcommon.a(s_record.o)
 .comment       0x00000a2c       0x2a common/libcommon.a(stdio.o)
 .comment       0x00000a56       0x2a common/libcommon.a(usb.o)
 .comment       0x00000a80       0x2a common/libcommon.a(usb_storage.o)
 .comment       0x00000aaa       0x2a common/libcommon.a(xyzModem.o)
 .comment       0x00000ad4       0x2a board/tekkamanninja/mini2440/libmini2440.a(mini2440.o)
 .comment       0x00000afe       0x2a board/tekkamanninja/mini2440/libmini2440.a(flash.o)
 .comment       0x00000b28       0x2a lib_generic/libgeneric.a(crc16.o)
 .comment       0x00000b52       0x2a lib_generic/libgeneric.a(crc32.o)
 .comment       0x00000b7c       0x2a lib_generic/libgeneric.a(ctype.o)
 .comment       0x00000ba6       0x2a lib_generic/libgeneric.a(display_options.o)
 .comment       0x00000bd0       0x2a lib_generic/libgeneric.a(gunzip.o)
 .comment       0x00000bfa       0x2a lib_generic/libgeneric.a(lmb.o)
 .comment       0x00000c24       0x2a lib_generic/libgeneric.a(string.o)
 .comment       0x00000c4e       0x2a lib_generic/libgeneric.a(vsprintf.o)
 .comment       0x00000c78       0x2a lib_generic/libgeneric.a(zlib.o)
 .comment       0x00000ca2       0x2a lib_generic/libgeneric.a(div64.o)
 .comment       0x00000ccc       0x2a cpu/arm920t/s3c24x0/libs3c24x0.a(interrupts.o)
 .comment       0x00000cf6       0x2a cpu/arm920t/s3c24x0/libs3c24x0.a(speed.o)
 .comment       0x00000d20       0x2a cpu/arm920t/s3c24x0/libs3c24x0.a(timer.o)
 .comment       0x00000d4a       0x2a cpu/arm920t/s3c24x0/libs3c24x0.a(usb_ohci.o)
 .comment       0x00000d74       0x2a cpu/arm920t/s3c24x0/libs3c24x0.a(mmc.o)
 .comment       0x00000d9e       0x2a lib_arm/libarm.a(bootm.o)
 .comment       0x00000dc8       0x2a lib_arm/libarm.a(cache.o)
 .comment       0x00000df2       0x2a lib_arm/libarm.a(cache-cp15.o)
 .comment       0x00000e1c       0x2a lib_arm/libarm.a(reset.o)
 .comment       0x00000e46       0x2a fs/fat/libfat.a(fat.o)
 .comment       0x00000e70       0x2a fs/jffs2/libjffs2.a(jffs2_1pass.o)
 .comment       0x00000e9a       0x2a fs/jffs2/libjffs2.a(compr_rtime.o)
 .comment       0x00000ec4       0x2a fs/jffs2/libjffs2.a(compr_rubin.o)
 .comment       0x00000eee       0x2a fs/jffs2/libjffs2.a(compr_zlib.o)
 .comment       0x00000f18       0x2a fs/jffs2/libjffs2.a(mini_inflate.o)
 .comment       0x00000f42       0x2a disk/libdisk.a(part.o)
 .comment       0x00000f6c       0x2a disk/libdisk.a(part_dos.o)
 .comment       0x00000f96       0x2a drivers/mtd/libmtd.a(mtdcore.o)
 .comment       0x00000fc0       0x2a drivers/mtd/nand/libnand.a(nand_util.o)
 .comment       0x00000fea       0x2a drivers/net/libnet.a(dm9000x.o)
 .comment       0x00001014       0x2a drivers/rtc/librtc.a(date.o)
 .comment       0x0000103e       0x2a drivers/rtc/librtc.a(s3c24x0_rtc.o)
 .comment       0x00001068       0x2a drivers/video/libvideo.a(cfb_console.o)
 .comment       0x00001092       0x2a drivers/video/libvideo.a(s3c2410_fb.o)
 .comment       0x000010bc       0x2a drivers/video/libvideo.a(videomodes.o)
 .comment       0x000010e6       0x2a cpu/arm920t/libarm920t.a(cpu.o)
 .comment       0x00001110       0x2a /home/bamboo/work/ok2440/u-boot_for_ok2440/lib_arm/eabi_compat.o

.note.GNU-stack
                0x00000000        0x0
 .note.GNU-stack
                0x00000000        0x0 board/tekkamanninja/mini2440/nand_read.o
 .note.GNU-stack
                0x00000000        0x0 lib_arm/libarm.a(board.o)
 .note.GNU-stack
                0x00000000        0x0 lib_arm/libarm.a(interrupts.o)
 .note.GNU-stack
                0x00000000        0x0 net/libnet.a(eth.o)
 .note.GNU-stack
                0x00000000        0x0 net/libnet.a(net.o)
 .note.GNU-stack
                0x00000000        0x0 net/libnet.a(nfs.o)
 .note.GNU-stack
                0x00000000        0x0 net/libnet.a(rarp.o)
 .note.GNU-stack
                0x00000000        0x0 net/libnet.a(tftp.o)
 .note.GNU-stack
                0x00000000        0x0 net/libnet.a(bootp.o)
 .note.GNU-stack
                0x00000000        0x0 drivers/i2c/libi2c.a(s3c24x0_i2c.o)
 .note.GNU-stack
                0x00000000        0x0 drivers/mtd/nand/libnand.a(nand.o)
 .note.GNU-stack
                0x00000000        0x0 drivers/mtd/nand/libnand.a(nand_base.o)
 .note.GNU-stack
                0x00000000        0x0 drivers/mtd/nand/libnand.a(nand_bbt.o)
 .note.GNU-stack
                0x00000000        0x0 drivers/mtd/nand/libnand.a(nand_ecc.o)
 .note.GNU-stack
                0x00000000        0x0 drivers/mtd/nand/libnand.a(nand_ids.o)
 .note.GNU-stack
                0x00000000        0x0 drivers/mtd/nand/libnand.a(s3c2410_nand.o)
 .note.GNU-stack
                0x00000000        0x0 drivers/serial/libserial.a(serial_s3c24x0.o)
 .note.GNU-stack
                0x00000000        0x0 drivers/usb/slave/libusb_slave.a(usbinit.o)
 .note.GNU-stack
                0x00000000        0x0 drivers/usb/slave/libusb_slave.a(interrupt.o)
 .note.GNU-stack
                0x00000000        0x0 drivers/usb/slave/libusb_slave.a(usblib.o)
 .note.GNU-stack
                0x00000000        0x0 drivers/usb/slave/libusb_slave.a(usbmain.o)
 .note.GNU-stack
                0x00000000        0x0 drivers/usb/slave/libusb_slave.a(usbout.o)
 .note.GNU-stack
                0x00000000        0x0 drivers/usb/slave/libusb_slave.a(usbsetup.o)
 .note.GNU-stack
                0x00000000        0x0 drivers/usb/slave/libusb_slave.a(usbin.o)
 .note.GNU-stack
                0x00000000        0x0 common/libcommon.a(cmd_bdinfo.o)
 .note.GNU-stack
                0x00000000        0x0 common/libcommon.a(cmd_bmp.o)
 .note.GNU-stack
                0x00000000        0x0 common/libcommon.a(cmd_boot.o)
 .note.GNU-stack
                0x00000000        0x0 common/libcommon.a(cmd_bootm.o)
 .note.GNU-stack
                0x00000000        0x0 common/libcommon.a(cmd_cache.o)
 .note.GNU-stack
                0x00000000        0x0 common/libcommon.a(cmd_console.o)
 .note.GNU-stack
                0x00000000        0x0 common/libcommon.a(cmd_date.o)
 .note.GNU-stack
                0x00000000        0x0 common/libcommon.a(cmd_eeprom.o)
 .note.GNU-stack
                0x00000000        0x0 common/libcommon.a(cmd_elf.o)
 .note.GNU-stack
                0x00000000        0x0 common/libcommon.a(cmd_fat.o)
 .note.GNU-stack
                0x00000000        0x0 common/libcommon.a(cmd_flash.o)
 .note.GNU-stack
                0x00000000        0x0 common/libcommon.a(cmd_i2c.o)
 .note.GNU-stack
                0x00000000        0x0 common/libcommon.a(cmd_itest.o)
 .note.GNU-stack
                0x00000000        0x0 common/libcommon.a(cmd_jffs2.o)
 .note.GNU-stack
                0x00000000        0x0 common/libcommon.a(cmd_load.o)
 .note.GNU-stack
                0x00000000        0x0 common/libcommon.a(cmd_mem.o)
 .note.GNU-stack
                0x00000000        0x0 common/libcommon.a(cmd_misc.o)
 .note.GNU-stack
                0x00000000        0x0 common/libcommon.a(cmd_mmc.o)
 .note.GNU-stack
                0x00000000        0x0 common/libcommon.a(cmd_mtdparts.o)
 .note.GNU-stack
                0x00000000        0x0 common/libcommon.a(cmd_nand.o)
 .note.GNU-stack
                0x00000000        0x0 common/libcommon.a(cmd_net.o)
 .note.GNU-stack
                0x00000000        0x0 common/libcommon.a(cmd_nvedit.o)
 .note.GNU-stack
                0x00000000        0x0 common/libcommon.a(cmd_reginfo.o)
 .note.GNU-stack
                0x00000000        0x0 common/libcommon.a(cmd_source.o)
 .note.GNU-stack
                0x00000000        0x0 common/libcommon.a(cmd_usb.o)
 .note.GNU-stack
                0x00000000        0x0 common/libcommon.a(cmd_usbslave.o)
 .note.GNU-stack
                0x00000000        0x0 common/libcommon.a(cmd_ximg.o)
 .note.GNU-stack
                0x00000000        0x0 common/libcommon.a(command.o)
 .note.GNU-stack
                0x00000000        0x0 common/libcommon.a(console.o)
 .note.GNU-stack
                0x00000000        0x0 common/libcommon.a(dlmalloc.o)
 .note.GNU-stack
                0x00000000        0x0 common/libcommon.a(env_common.o)
 .note.GNU-stack
                0x00000000        0x0 common/libcommon.a(env_nand.o)
 .note.GNU-stack
                0x00000000        0x0 common/libcommon.a(exports.o)
 .note.GNU-stack
                0x00000000        0x0 common/libcommon.a(flash.o)
 .note.GNU-stack
                0x00000000        0x0 common/libcommon.a(hush.o)
 .note.GNU-stack
                0x00000000        0x0 common/libcommon.a(image.o)
 .note.GNU-stack
                0x00000000        0x0 common/libcommon.a(main.o)
 .note.GNU-stack
                0x00000000        0x0 common/libcommon.a(s_record.o)
 .note.GNU-stack
                0x00000000        0x0 common/libcommon.a(stdio.o)
 .note.GNU-stack
                0x00000000        0x0 common/libcommon.a(usb.o)
 .note.GNU-stack
                0x00000000        0x0 common/libcommon.a(usb_storage.o)
 .note.GNU-stack
                0x00000000        0x0 common/libcommon.a(xyzModem.o)
 .note.GNU-stack
                0x00000000        0x0 board/tekkamanninja/mini2440/libmini2440.a(mini2440.o)
 .note.GNU-stack
                0x00000000        0x0 board/tekkamanninja/mini2440/libmini2440.a(flash.o)
 .note.GNU-stack
                0x00000000        0x0 lib_generic/libgeneric.a(crc16.o)
 .note.GNU-stack
                0x00000000        0x0 lib_generic/libgeneric.a(crc32.o)
 .note.GNU-stack
                0x00000000        0x0 lib_generic/libgeneric.a(ctype.o)
 .note.GNU-stack
                0x00000000        0x0 lib_generic/libgeneric.a(display_options.o)
 .note.GNU-stack
                0x00000000        0x0 lib_generic/libgeneric.a(gunzip.o)
 .note.GNU-stack
                0x00000000        0x0 lib_generic/libgeneric.a(lmb.o)
 .note.GNU-stack
                0x00000000        0x0 lib_generic/libgeneric.a(string.o)
 .note.GNU-stack
                0x00000000        0x0 lib_generic/libgeneric.a(vsprintf.o)
 .note.GNU-stack
                0x00000000        0x0 lib_generic/libgeneric.a(zlib.o)
 .note.GNU-stack
                0x00000000        0x0 lib_generic/libgeneric.a(div64.o)
 .note.GNU-stack
                0x00000000        0x0 cpu/arm920t/s3c24x0/libs3c24x0.a(interrupts.o)
 .note.GNU-stack
                0x00000000        0x0 cpu/arm920t/s3c24x0/libs3c24x0.a(speed.o)
 .note.GNU-stack
                0x00000000        0x0 cpu/arm920t/s3c24x0/libs3c24x0.a(timer.o)
 .note.GNU-stack
                0x00000000        0x0 cpu/arm920t/s3c24x0/libs3c24x0.a(usb_ohci.o)
 .note.GNU-stack
                0x00000000        0x0 cpu/arm920t/s3c24x0/libs3c24x0.a(mmc.o)
 .note.GNU-stack
                0x00000000        0x0 lib_arm/libarm.a(bootm.o)
 .note.GNU-stack
                0x00000000        0x0 lib_arm/libarm.a(cache.o)
 .note.GNU-stack
                0x00000000        0x0 lib_arm/libarm.a(cache-cp15.o)
 .note.GNU-stack
                0x00000000        0x0 lib_arm/libarm.a(reset.o)
 .note.GNU-stack
                0x00000000        0x0 fs/fat/libfat.a(fat.o)
 .note.GNU-stack
                0x00000000        0x0 fs/jffs2/libjffs2.a(jffs2_1pass.o)
 .note.GNU-stack
                0x00000000        0x0 fs/jffs2/libjffs2.a(compr_rtime.o)
 .note.GNU-stack
                0x00000000        0x0 fs/jffs2/libjffs2.a(compr_rubin.o)
 .note.GNU-stack
                0x00000000        0x0 fs/jffs2/libjffs2.a(compr_zlib.o)
 .note.GNU-stack
                0x00000000        0x0 fs/jffs2/libjffs2.a(mini_inflate.o)
 .note.GNU-stack
                0x00000000        0x0 disk/libdisk.a(part.o)
 .note.GNU-stack
                0x00000000        0x0 disk/libdisk.a(part_dos.o)
 .note.GNU-stack
                0x00000000        0x0 drivers/mtd/libmtd.a(mtdcore.o)
 .note.GNU-stack
                0x00000000        0x0 drivers/mtd/nand/libnand.a(nand_util.o)
 .note.GNU-stack
                0x00000000        0x0 drivers/net/libnet.a(dm9000x.o)
 .note.GNU-stack
                0x00000000        0x0 drivers/rtc/librtc.a(date.o)
 .note.GNU-stack
                0x00000000        0x0 drivers/rtc/librtc.a(s3c24x0_rtc.o)
 .note.GNU-stack
                0x00000000        0x0 drivers/video/libvideo.a(cfb_console.o)
 .note.GNU-stack
                0x00000000        0x0 drivers/video/libvideo.a(s3c2410_fb.o)
 .note.GNU-stack
                0x00000000        0x0 drivers/video/libvideo.a(videomodes.o)
 .note.GNU-stack
                0x00000000        0x0 cpu/arm920t/libarm920t.a(cpu.o)
 .note.GNU-stack
                0x00000000        0x0 /home/bamboo/work/ok2440/u-boot_for_ok2440/lib_arm/eabi_compat.o
 .note.GNU-stack
                0x00000000        0x0 /home/bamboo/work/ok2440/cross_tools/4.3.2/bin/../lib/gcc/arm-none-linux-gnueabi/4.3.2/armv4t/libgcc.a(_udivsi3.o)
 .note.GNU-stack
                0x00000000        0x0 /home/bamboo/work/ok2440/cross_tools/4.3.2/bin/../lib/gcc/arm-none-linux-gnueabi/4.3.2/armv4t/libgcc.a(_divsi3.o)
 .note.GNU-stack
                0x00000000        0x0 /home/bamboo/work/ok2440/cross_tools/4.3.2/bin/../lib/gcc/arm-none-linux-gnueabi/4.3.2/armv4t/libgcc.a(_lshrdi3.o)
 .note.GNU-stack
                0x00000000        0x0 /home/bamboo/work/ok2440/cross_tools/4.3.2/bin/../lib/gcc/arm-none-linux-gnueabi/4.3.2/armv4t/libgcc.a(_ashrdi3.o)
 .note.GNU-stack
                0x00000000        0x0 /home/bamboo/work/ok2440/cross_tools/4.3.2/bin/../lib/gcc/arm-none-linux-gnueabi/4.3.2/armv4t/libgcc.a(_ashldi3.o)
 .note.GNU-stack
                0x00000000        0x0 /home/bamboo/work/ok2440/cross_tools/4.3.2/bin/../lib/gcc/arm-none-linux-gnueabi/4.3.2/armv4t/libgcc.a(_dvmd_lnx.o)
